   1              		.cpu cortex-m4
   2              		.arch armv7e-m
   3              		.fpu fpv4-sp-d16
   4              		.eabi_attribute 27, 1
   5              		.eabi_attribute 28, 1
   6              		.eabi_attribute 20, 1
   7              		.eabi_attribute 21, 1
   8              		.eabi_attribute 23, 3
   9              		.eabi_attribute 24, 1
  10              		.eabi_attribute 25, 1
  11              		.eabi_attribute 26, 1
  12              		.eabi_attribute 30, 4
  13              		.eabi_attribute 34, 1
  14              		.eabi_attribute 18, 4
  15              		.file	"ff.c"
  16              		.text
  17              	.Ltext0:
  18              		.cfi_sections	.debug_frame
  19              		.section	.text.mem_cpy,"ax",%progbits
  20              		.align	1
  21              		.syntax unified
  22              		.thumb
  23              		.thumb_func
  25              	mem_cpy:
  26              	.LVL0:
  27              	.LFB130:
  28              		.file 1 "source\\fatfs\\ff.c"
   1:source\fatfs/ff.c **** /*----------------------------------------------------------------------------/
   2:source\fatfs/ff.c **** /  FatFs - FAT file system module  R0.11                 (C)ChaN, 2015
   3:source\fatfs/ff.c **** /-----------------------------------------------------------------------------/
   4:source\fatfs/ff.c **** / FatFs module is a free software that opened under license policy of
   5:source\fatfs/ff.c **** / following conditions.
   6:source\fatfs/ff.c **** /
   7:source\fatfs/ff.c **** / Copyright (C) 2015, ChaN, all right reserved.
   8:source\fatfs/ff.c **** /
   9:source\fatfs/ff.c **** / 1. Redistributions of source code must retain the above copyright notice,
  10:source\fatfs/ff.c **** /    this condition and the following disclaimer.
  11:source\fatfs/ff.c **** /
  12:source\fatfs/ff.c **** / This software is provided by the copyright holder and contributors "AS IS"
  13:source\fatfs/ff.c **** / and any warranties related to this software are DISCLAIMED.
  14:source\fatfs/ff.c **** / The copyright owner or contributors be NOT LIABLE for any damages caused
  15:source\fatfs/ff.c **** / by use of this software.
  16:source\fatfs/ff.c **** /-----------------------------------------------------------------------------/
  17:source\fatfs/ff.c **** / Feb 26,'06 R0.00  Prototype.
  18:source\fatfs/ff.c **** /
  19:source\fatfs/ff.c **** / Apr 29,'06 R0.01  First stable version.
  20:source\fatfs/ff.c **** /
  21:source\fatfs/ff.c **** / Jun 01,'06 R0.02  Added FAT12 support.
  22:source\fatfs/ff.c **** /                   Removed unbuffered mode.
  23:source\fatfs/ff.c **** /                   Fixed a problem on small (<32M) partition.
  24:source\fatfs/ff.c **** / Jun 10,'06 R0.02a Added a configuration option (_FS_MINIMUM).
  25:source\fatfs/ff.c **** /
  26:source\fatfs/ff.c **** / Sep 22,'06 R0.03  Added f_rename().
  27:source\fatfs/ff.c **** /                   Changed option _FS_MINIMUM to _FS_MINIMIZE.
  28:source\fatfs/ff.c **** / Dec 11,'06 R0.03a Improved cluster scan algorithm to write files fast.
  29:source\fatfs/ff.c **** /                   Fixed f_mkdir() creates incorrect directory on FAT32.
  30:source\fatfs/ff.c **** /
  31:source\fatfs/ff.c **** / Feb 04,'07 R0.04  Supported multiple drive system.
  32:source\fatfs/ff.c **** /                   Changed some interfaces for multiple drive system.
  33:source\fatfs/ff.c **** /                   Changed f_mountdrv() to f_mount().
  34:source\fatfs/ff.c **** /                   Added f_mkfs().
  35:source\fatfs/ff.c **** / Apr 01,'07 R0.04a Supported multiple partitions on a physical drive.
  36:source\fatfs/ff.c **** /                   Added a capability of extending file size to f_lseek().
  37:source\fatfs/ff.c **** /                   Added minimization level 3.
  38:source\fatfs/ff.c **** /                   Fixed an endian sensitive code in f_mkfs().
  39:source\fatfs/ff.c **** / May 05,'07 R0.04b Added a configuration option _USE_NTFLAG.
  40:source\fatfs/ff.c **** /                   Added FSINFO support.
  41:source\fatfs/ff.c **** /                   Fixed DBCS name can result FR_INVALID_NAME.
  42:source\fatfs/ff.c **** /                   Fixed short seek (<= csize) collapses the file object.
  43:source\fatfs/ff.c **** /
  44:source\fatfs/ff.c **** / Aug 25,'07 R0.05  Changed arguments of f_read(), f_write() and f_mkfs().
  45:source\fatfs/ff.c **** /                   Fixed f_mkfs() on FAT32 creates incorrect FSINFO.
  46:source\fatfs/ff.c **** /                   Fixed f_mkdir() on FAT32 creates incorrect directory.
  47:source\fatfs/ff.c **** / Feb 03,'08 R0.05a Added f_truncate() and f_utime().
  48:source\fatfs/ff.c **** /                   Fixed off by one error at FAT sub-type determination.
  49:source\fatfs/ff.c **** /                   Fixed btr in f_read() can be mistruncated.
  50:source\fatfs/ff.c **** /                   Fixed cached sector is not flushed when create and close without write.
  51:source\fatfs/ff.c **** /
  52:source\fatfs/ff.c **** / Apr 01,'08 R0.06  Added fputc(), fputs(), fprintf() and fgets().
  53:source\fatfs/ff.c **** /                   Improved performance of f_lseek() on moving to the same or following cluster.
  54:source\fatfs/ff.c **** /
  55:source\fatfs/ff.c **** / Apr 01,'09 R0.07  Merged Tiny-FatFs as a configuration option. (_FS_TINY)
  56:source\fatfs/ff.c **** /                   Added long file name feature.
  57:source\fatfs/ff.c **** /                   Added multiple code page feature.
  58:source\fatfs/ff.c **** /                   Added re-entrancy for multitask operation.
  59:source\fatfs/ff.c **** /                   Added auto cluster size selection to f_mkfs().
  60:source\fatfs/ff.c **** /                   Added rewind option to f_readdir().
  61:source\fatfs/ff.c **** /                   Changed result code of critical errors.
  62:source\fatfs/ff.c **** /                   Renamed string functions to avoid name collision.
  63:source\fatfs/ff.c **** / Apr 14,'09 R0.07a Separated out OS dependent code on reentrant cfg.
  64:source\fatfs/ff.c **** /                   Added multiple sector size feature.
  65:source\fatfs/ff.c **** / Jun 21,'09 R0.07c Fixed f_unlink() can return FR_OK on error.
  66:source\fatfs/ff.c **** /                   Fixed wrong cache control in f_lseek().
  67:source\fatfs/ff.c **** /                   Added relative path feature.
  68:source\fatfs/ff.c **** /                   Added f_chdir() and f_chdrive().
  69:source\fatfs/ff.c **** /                   Added proper case conversion to extended character.
  70:source\fatfs/ff.c **** / Nov 03,'09 R0.07e Separated out configuration options from ff.h to ffconf.h.
  71:source\fatfs/ff.c **** /                   Fixed f_unlink() fails to remove a sub-directory on _FS_RPATH.
  72:source\fatfs/ff.c **** /                   Fixed name matching error on the 13 character boundary.
  73:source\fatfs/ff.c **** /                   Added a configuration option, _LFN_UNICODE.
  74:source\fatfs/ff.c **** /                   Changed f_readdir() to return the SFN with always upper case on non-LFN cfg.
  75:source\fatfs/ff.c **** /
  76:source\fatfs/ff.c **** / May 15,'10 R0.08  Added a memory configuration option. (_USE_LFN = 3)
  77:source\fatfs/ff.c **** /                   Added file lock feature. (_FS_SHARE)
  78:source\fatfs/ff.c **** /                   Added fast seek feature. (_USE_FASTSEEK)
  79:source\fatfs/ff.c **** /                   Changed some types on the API, XCHAR->TCHAR.
  80:source\fatfs/ff.c **** /                   Changed .fname in the FILINFO structure on Unicode cfg.
  81:source\fatfs/ff.c **** /                   String functions support UTF-8 encoding files on Unicode cfg.
  82:source\fatfs/ff.c **** / Aug 16,'10 R0.08a Added f_getcwd().
  83:source\fatfs/ff.c **** /                   Added sector erase feature. (_USE_ERASE)
  84:source\fatfs/ff.c **** /                   Moved file lock semaphore table from fs object to the bss.
  85:source\fatfs/ff.c **** /                   Fixed a wrong directory entry is created on non-LFN cfg when the given name con
  86:source\fatfs/ff.c **** /                   Fixed f_mkfs() creates wrong FAT32 volume.
  87:source\fatfs/ff.c **** / Jan 15,'11 R0.08b Fast seek feature is also applied to f_read() and f_write().
  88:source\fatfs/ff.c **** /                   f_lseek() reports required table size on creating CLMP.
  89:source\fatfs/ff.c **** /                   Extended format syntax of f_printf().
  90:source\fatfs/ff.c **** /                   Ignores duplicated directory separators in given path name.
  91:source\fatfs/ff.c **** /
  92:source\fatfs/ff.c **** / Sep 06,'11 R0.09  f_mkfs() supports multiple partition to complete the multiple partition feature
  93:source\fatfs/ff.c **** /                   Added f_fdisk().
  94:source\fatfs/ff.c **** / Aug 27,'12 R0.09a Changed f_open() and f_opendir() reject null object pointer to avoid crash.
  95:source\fatfs/ff.c **** /                   Changed option name _FS_SHARE to _FS_LOCK.
  96:source\fatfs/ff.c **** /                   Fixed assertion failure due to OS/2 EA on FAT12/16 volume.
  97:source\fatfs/ff.c **** / Jan 24,'13 R0.09b Added f_setlabel() and f_getlabel().
  98:source\fatfs/ff.c **** /
  99:source\fatfs/ff.c **** / Oct 02,'13 R0.10  Added selection of character encoding on the file. (_STRF_ENCODE)
 100:source\fatfs/ff.c **** /                   Added f_closedir().
 101:source\fatfs/ff.c **** /                   Added forced full FAT scan for f_getfree(). (_FS_NOFSINFO)
 102:source\fatfs/ff.c **** /                   Added forced mount feature with changes of f_mount().
 103:source\fatfs/ff.c **** /                   Improved behavior of volume auto detection.
 104:source\fatfs/ff.c **** /                   Improved write throughput of f_puts() and f_printf().
 105:source\fatfs/ff.c **** /                   Changed argument of f_chdrive(), f_mkfs(), disk_read() and disk_write().
 106:source\fatfs/ff.c **** /                   Fixed f_write() can be truncated when the file size is close to 4GB.
 107:source\fatfs/ff.c **** /                   Fixed f_open(), f_mkdir() and f_setlabel() can return incorrect error code.
 108:source\fatfs/ff.c **** / Jan 15,'14 R0.10a Added arbitrary strings as drive number in the path name. (_STR_VOLUME_ID)
 109:source\fatfs/ff.c **** /                   Added a configuration option of minimum sector size. (_MIN_SS)
 110:source\fatfs/ff.c **** /                   2nd argument of f_rename() can have a drive number and it will be ignored.
 111:source\fatfs/ff.c **** /                   Fixed f_mount() with forced mount fails when drive number is >= 1.
 112:source\fatfs/ff.c **** /                   Fixed f_close() invalidates the file object without volume lock.
 113:source\fatfs/ff.c **** /                   Fixed f_closedir() returns but the volume lock is left acquired.
 114:source\fatfs/ff.c **** /                   Fixed creation of an entry with LFN fails on too many SFN collisions.
 115:source\fatfs/ff.c **** / May 19,'14 R0.10b Fixed a hard error in the disk I/O layer can collapse the directory entry.
 116:source\fatfs/ff.c **** /                   Fixed LFN entry is not deleted on delete/rename an object with lossy converted 
 117:source\fatfs/ff.c **** / Nov  9,'14 R0.10c Added a configuration option for the platforms without RTC. (_FS_NORTC)
 118:source\fatfs/ff.c **** /                   Fixed volume label created by Mac OS X cannot be retrieved with f_getlabel(). (
 119:source\fatfs/ff.c **** /                   Fixed a potential problem of FAT access that can appear on disk error.
 120:source\fatfs/ff.c **** /                   Fixed null pointer dereference on attempting to delete the root direcotry. (app
 121:source\fatfs/ff.c **** / Feb 02,'15 R0.11  Added f_findfirst() and f_findnext(). (_USE_FIND)
 122:source\fatfs/ff.c **** /                   Fixed f_unlink() does not remove cluster chain of the file. (appeared at R0.10c
 123:source\fatfs/ff.c **** /                   Fixed _FS_NORTC option does not work properly. (appeared at R0.10c)
 124:source\fatfs/ff.c **** /---------------------------------------------------------------------------*/
 125:source\fatfs/ff.c **** 
 126:source\fatfs/ff.c **** #include "ff.h"			/* Declarations of FatFs API */
 127:source\fatfs/ff.c **** #include "diskio.h"		/* Declarations of disk I/O functions */
 128:source\fatfs/ff.c **** 
 129:source\fatfs/ff.c **** 
 130:source\fatfs/ff.c **** /*--------------------------------------------------------------------------
 131:source\fatfs/ff.c **** 
 132:source\fatfs/ff.c ****    Module Private Definitions
 133:source\fatfs/ff.c **** 
 134:source\fatfs/ff.c **** ---------------------------------------------------------------------------*/
 135:source\fatfs/ff.c **** 
 136:source\fatfs/ff.c **** #if _FATFS != 32020	/* Revision ID */
 137:source\fatfs/ff.c **** #error Wrong include file (ff.h).
 138:source\fatfs/ff.c **** #endif
 139:source\fatfs/ff.c **** 
 140:source\fatfs/ff.c **** 
 141:source\fatfs/ff.c **** /* Reentrancy related */
 142:source\fatfs/ff.c **** #if _FS_REENTRANT
 143:source\fatfs/ff.c **** #if _USE_LFN == 1
 144:source\fatfs/ff.c **** #error Static LFN work area cannot be used at thread-safe configuration
 145:source\fatfs/ff.c **** #endif
 146:source\fatfs/ff.c **** #define	ENTER_FF(fs)		{ if (!lock_fs(fs)) return FR_TIMEOUT; }
 147:source\fatfs/ff.c **** #define	LEAVE_FF(fs, res)	{ unlock_fs(fs, res); return res; }
 148:source\fatfs/ff.c **** #else
 149:source\fatfs/ff.c **** #define	ENTER_FF(fs)
 150:source\fatfs/ff.c **** #define LEAVE_FF(fs, res)	return res
 151:source\fatfs/ff.c **** #endif
 152:source\fatfs/ff.c **** 
 153:source\fatfs/ff.c **** #define	ABORT(fs, res)		{ fp->err = (BYTE)(res); LEAVE_FF(fs, res); }
 154:source\fatfs/ff.c **** 
 155:source\fatfs/ff.c **** 
 156:source\fatfs/ff.c **** /* Definitions of sector size */
 157:source\fatfs/ff.c **** #if (_MAX_SS < _MIN_SS) || (_MAX_SS != 512 && _MAX_SS != 1024 && _MAX_SS != 2048 && _MAX_SS != 4096
 158:source\fatfs/ff.c **** #error Wrong sector size configuration
 159:source\fatfs/ff.c **** #endif
 160:source\fatfs/ff.c **** #if _MAX_SS == _MIN_SS
 161:source\fatfs/ff.c **** #define	SS(fs)	((UINT)_MAX_SS)	/* Fixed sector size */
 162:source\fatfs/ff.c **** #else
 163:source\fatfs/ff.c **** #define	SS(fs)	((fs)->ssize)	/* Variable sector size */
 164:source\fatfs/ff.c **** #endif
 165:source\fatfs/ff.c **** 
 166:source\fatfs/ff.c **** 
 167:source\fatfs/ff.c **** /* Timestamp feature */
 168:source\fatfs/ff.c **** #if _FS_NORTC == 1
 169:source\fatfs/ff.c **** #if _NORTC_YEAR < 1980 || _NORTC_YEAR > 2107 || _NORTC_MON < 1 || _NORTC_MON > 12 || _NORTC_MDAY < 
 170:source\fatfs/ff.c **** #error Invalid _FS_NORTC settings
 171:source\fatfs/ff.c **** #endif
 172:source\fatfs/ff.c **** #define GET_FATTIME()	((DWORD)(_NORTC_YEAR - 1980) << 25 | (DWORD)_NORTC_MON << 21 | (DWORD)_NORTC_
 173:source\fatfs/ff.c **** #else
 174:source\fatfs/ff.c **** #define GET_FATTIME()	get_fattime()
 175:source\fatfs/ff.c **** #endif
 176:source\fatfs/ff.c **** 
 177:source\fatfs/ff.c **** 
 178:source\fatfs/ff.c **** /* File access control feature */
 179:source\fatfs/ff.c **** #if _FS_LOCK
 180:source\fatfs/ff.c **** #if _FS_READONLY
 181:source\fatfs/ff.c **** #error _FS_LOCK must be 0 at read-only configuration
 182:source\fatfs/ff.c **** #endif
 183:source\fatfs/ff.c **** typedef struct {
 184:source\fatfs/ff.c **** 	FATFS *fs;		/* Object ID 1, volume (NULL:blank entry) */
 185:source\fatfs/ff.c **** 	DWORD clu;		/* Object ID 2, directory (0:root) */
 186:source\fatfs/ff.c **** 	WORD idx;		/* Object ID 3, directory index */
 187:source\fatfs/ff.c **** 	WORD ctr;		/* Object open counter, 0:none, 0x01..0xFF:read mode open count, 0x100:write mode */
 188:source\fatfs/ff.c **** } FILESEM;
 189:source\fatfs/ff.c **** #endif
 190:source\fatfs/ff.c **** 
 191:source\fatfs/ff.c **** 
 192:source\fatfs/ff.c **** 
 193:source\fatfs/ff.c **** /* DBCS code ranges and SBCS extend character conversion table */
 194:source\fatfs/ff.c **** 
 195:source\fatfs/ff.c **** #if _CODE_PAGE == 932	/* Japanese Shift-JIS */
 196:source\fatfs/ff.c **** #define _DF1S	0x81	/* DBC 1st byte range 1 start */
 197:source\fatfs/ff.c **** #define _DF1E	0x9F	/* DBC 1st byte range 1 end */
 198:source\fatfs/ff.c **** #define _DF2S	0xE0	/* DBC 1st byte range 2 start */
 199:source\fatfs/ff.c **** #define _DF2E	0xFC	/* DBC 1st byte range 2 end */
 200:source\fatfs/ff.c **** #define _DS1S	0x40	/* DBC 2nd byte range 1 start */
 201:source\fatfs/ff.c **** #define _DS1E	0x7E	/* DBC 2nd byte range 1 end */
 202:source\fatfs/ff.c **** #define _DS2S	0x80	/* DBC 2nd byte range 2 start */
 203:source\fatfs/ff.c **** #define _DS2E	0xFC	/* DBC 2nd byte range 2 end */
 204:source\fatfs/ff.c **** 
 205:source\fatfs/ff.c **** #elif _CODE_PAGE == 936	/* Simplified Chinese GBK */
 206:source\fatfs/ff.c **** #define _DF1S	0x81
 207:source\fatfs/ff.c **** #define _DF1E	0xFE
 208:source\fatfs/ff.c **** #define _DS1S	0x40
 209:source\fatfs/ff.c **** #define _DS1E	0x7E
 210:source\fatfs/ff.c **** #define _DS2S	0x80
 211:source\fatfs/ff.c **** #define _DS2E	0xFE
 212:source\fatfs/ff.c **** 
 213:source\fatfs/ff.c **** #elif _CODE_PAGE == 949	/* Korean */
 214:source\fatfs/ff.c **** #define _DF1S	0x81
 215:source\fatfs/ff.c **** #define _DF1E	0xFE
 216:source\fatfs/ff.c **** #define _DS1S	0x41
 217:source\fatfs/ff.c **** #define _DS1E	0x5A
 218:source\fatfs/ff.c **** #define _DS2S	0x61
 219:source\fatfs/ff.c **** #define _DS2E	0x7A
 220:source\fatfs/ff.c **** #define _DS3S	0x81
 221:source\fatfs/ff.c **** #define _DS3E	0xFE
 222:source\fatfs/ff.c **** 
 223:source\fatfs/ff.c **** #elif _CODE_PAGE == 950	/* Traditional Chinese Big5 */
 224:source\fatfs/ff.c **** #define _DF1S	0x81
 225:source\fatfs/ff.c **** #define _DF1E	0xFE
 226:source\fatfs/ff.c **** #define _DS1S	0x40
 227:source\fatfs/ff.c **** #define _DS1E	0x7E
 228:source\fatfs/ff.c **** #define _DS2S	0xA1
 229:source\fatfs/ff.c **** #define _DS2E	0xFE
 230:source\fatfs/ff.c **** 
 231:source\fatfs/ff.c **** #elif _CODE_PAGE == 437	/* U.S. (OEM) */
 232:source\fatfs/ff.c **** #define _DF1S	0
 233:source\fatfs/ff.c **** #define _EXCVT {0x80,0x9A,0x90,0x41,0x8E,0x41,0x8F,0x80,0x45,0x45,0x45,0x49,0x49,0x49,0x8E,0x8F,0x9
 234:source\fatfs/ff.c **** 				0x41,0x49,0x4F,0x55,0xA5,0xA5,0xA6,0xA7,0xA8,0xA9,0xAA,0xAB,0xAC,0x21,0xAE,0xAF,0xB0,0xB1,0xB2,
 235:source\fatfs/ff.c **** 				0xC0,0xC1,0xC2,0xC3,0xC4,0xC5,0xC6,0xC7,0xC8,0xC9,0xCA,0xCB,0xCC,0xCD,0xCE,0xCF,0xD0,0xD1,0xD2,
 236:source\fatfs/ff.c **** 				0xE0,0xE1,0xE2,0xE3,0xE4,0xE5,0xE6,0xE7,0xE8,0xE9,0xEA,0xEB,0xEC,0xED,0xEE,0xEF,0xF0,0xF1,0xF2,
 237:source\fatfs/ff.c **** 
 238:source\fatfs/ff.c **** #elif _CODE_PAGE == 720	/* Arabic (OEM) */
 239:source\fatfs/ff.c **** #define _DF1S	0
 240:source\fatfs/ff.c **** #define _EXCVT {0x80,0x81,0x45,0x41,0x84,0x41,0x86,0x43,0x45,0x45,0x45,0x49,0x49,0x8D,0x8E,0x8F,0x9
 241:source\fatfs/ff.c **** 				0xA0,0xA1,0xA2,0xA3,0xA4,0xA5,0xA6,0xA7,0xA8,0xA9,0xAA,0xAB,0xAC,0xAD,0xAE,0xAF,0xB0,0xB1,0xB2,
 242:source\fatfs/ff.c **** 				0xC0,0xC1,0xC2,0xC3,0xC4,0xC5,0xC6,0xC7,0xC8,0xC9,0xCA,0xCB,0xCC,0xCD,0xCE,0xCF,0xD0,0xD1,0xD2,
 243:source\fatfs/ff.c **** 				0xE0,0xE1,0xE2,0xE3,0xE4,0xE5,0xE6,0xE7,0xE8,0xE9,0xEA,0xEB,0xEC,0xED,0xEE,0xEF,0xF0,0xF1,0xF2,
 244:source\fatfs/ff.c **** 
 245:source\fatfs/ff.c **** #elif _CODE_PAGE == 737	/* Greek (OEM) */
 246:source\fatfs/ff.c **** #define _DF1S	0
 247:source\fatfs/ff.c **** #define _EXCVT {0x80,0x81,0x82,0x83,0x84,0x85,0x86,0x87,0x88,0x89,0x8A,0x8B,0x8C,0x8D,0x8E,0x8F,0x9
 248:source\fatfs/ff.c **** 				0x88,0x89,0x8A,0x8B,0x8C,0x8D,0x8E,0x8F,0x90,0x91,0xAA,0x92,0x93,0x94,0x95,0x96,0xB0,0xB1,0xB2,
 249:source\fatfs/ff.c **** 				0xC0,0xC1,0xC2,0xC3,0xC4,0xC5,0xC6,0xC7,0xC8,0xC9,0xCA,0xCB,0xCC,0xCD,0xCE,0xCF,0xD0,0xD1,0xD2,
 250:source\fatfs/ff.c **** 				0x97,0xEA,0xEB,0xEC,0xE4,0xED,0xEE,0xE7,0xE8,0xF1,0xEA,0xEB,0xEC,0xED,0xEE,0xEF,0xF0,0xF1,0xF2,
 251:source\fatfs/ff.c **** 
 252:source\fatfs/ff.c **** #elif _CODE_PAGE == 775	/* Baltic (OEM) */
 253:source\fatfs/ff.c **** #define _DF1S	0
 254:source\fatfs/ff.c **** #define _EXCVT {0x80,0x9A,0x91,0xA0,0x8E,0x95,0x8F,0x80,0xAD,0xED,0x8A,0x8A,0xA1,0x8D,0x8E,0x8F,0x9
 255:source\fatfs/ff.c **** 				0xA0,0xA1,0xE0,0xA3,0xA3,0xA5,0xA6,0xA7,0xA8,0xA9,0xAA,0xAB,0xAC,0xAD,0xAE,0xAF,0xB0,0xB1,0xB2,
 256:source\fatfs/ff.c **** 				0xC0,0xC1,0xC2,0xC3,0xC4,0xC5,0xC6,0xC7,0xC8,0xC9,0xCA,0xCB,0xCC,0xCD,0xCE,0xCF,0xB5,0xB6,0xB7,
 257:source\fatfs/ff.c **** 				0xE0,0xE1,0xE2,0xE3,0xE5,0xE5,0xE6,0xE3,0xE8,0xE8,0xEA,0xEA,0xEE,0xED,0xEE,0xEF,0xF0,0xF1,0xF2,
 258:source\fatfs/ff.c **** 
 259:source\fatfs/ff.c **** #elif _CODE_PAGE == 850	/* Multilingual Latin 1 (OEM) */
 260:source\fatfs/ff.c **** #define _DF1S	0
 261:source\fatfs/ff.c **** #define _EXCVT {0x80,0x9A,0x90,0xB6,0x8E,0xB7,0x8F,0x80,0xD2,0xD3,0xD4,0xD8,0xD7,0xDE,0x8E,0x8F,0x9
 262:source\fatfs/ff.c **** 				0xB5,0xD6,0xE0,0xE9,0xA5,0xA5,0xA6,0xA7,0xA8,0xA9,0xAA,0xAB,0xAC,0x21,0xAE,0xAF,0xB0,0xB1,0xB2,
 263:source\fatfs/ff.c **** 				0xC0,0xC1,0xC2,0xC3,0xC4,0xC5,0xC7,0xC7,0xC8,0xC9,0xCA,0xCB,0xCC,0xCD,0xCE,0xCF,0xD0,0xD1,0xD2,
 264:source\fatfs/ff.c **** 				0xE0,0xE1,0xE2,0xE3,0xE5,0xE5,0xE6,0xE7,0xE7,0xE9,0xEA,0xEB,0xED,0xED,0xEE,0xEF,0xF0,0xF1,0xF2,
 265:source\fatfs/ff.c **** 
 266:source\fatfs/ff.c **** #elif _CODE_PAGE == 852	/* Latin 2 (OEM) */
 267:source\fatfs/ff.c **** #define _DF1S	0
 268:source\fatfs/ff.c **** #define _EXCVT {0x80,0x9A,0x90,0xB6,0x8E,0xDE,0x8F,0x80,0x9D,0xD3,0x8A,0x8A,0xD7,0x8D,0x8E,0x8F,0x9
 269:source\fatfs/ff.c **** 				0xB5,0xD6,0xE0,0xE9,0xA4,0xA4,0xA6,0xA6,0xA8,0xA8,0xAA,0x8D,0xAC,0xB8,0xAE,0xAF,0xB0,0xB1,0xB2,
 270:source\fatfs/ff.c **** 				0xC0,0xC1,0xC2,0xC3,0xC4,0xC5,0xC6,0xC6,0xC8,0xC9,0xCA,0xCB,0xCC,0xCD,0xCE,0xCF,0xD1,0xD1,0xD2,
 271:source\fatfs/ff.c **** 				0xE0,0xE1,0xE2,0xE3,0xE3,0xD5,0xE6,0xE6,0xE8,0xE9,0xE8,0xEB,0xED,0xED,0xDD,0xEF,0xF0,0xF1,0xF2,
 272:source\fatfs/ff.c **** 
 273:source\fatfs/ff.c **** #elif _CODE_PAGE == 855	/* Cyrillic (OEM) */
 274:source\fatfs/ff.c **** #define _DF1S	0
 275:source\fatfs/ff.c **** #define _EXCVT {0x81,0x81,0x83,0x83,0x85,0x85,0x87,0x87,0x89,0x89,0x8B,0x8B,0x8D,0x8D,0x8F,0x8F,0x9
 276:source\fatfs/ff.c **** 				0xA1,0xA1,0xA3,0xA3,0xA5,0xA5,0xA7,0xA7,0xA9,0xA9,0xAB,0xAB,0xAD,0xAD,0xAE,0xAF,0xB0,0xB1,0xB2,
 277:source\fatfs/ff.c **** 				0xC0,0xC1,0xC2,0xC3,0xC4,0xC5,0xC7,0xC7,0xC8,0xC9,0xCA,0xCB,0xCC,0xCD,0xCE,0xCF,0xD1,0xD1,0xD3,
 278:source\fatfs/ff.c **** 				0xE0,0xE2,0xE2,0xE4,0xE4,0xE6,0xE6,0xE8,0xE8,0xEA,0xEA,0xEC,0xEC,0xEE,0xEE,0xEF,0xF0,0xF2,0xF2,
 279:source\fatfs/ff.c **** 
 280:source\fatfs/ff.c **** #elif _CODE_PAGE == 857	/* Turkish (OEM) */
 281:source\fatfs/ff.c **** #define _DF1S	0
 282:source\fatfs/ff.c **** #define _EXCVT {0x80,0x9A,0x90,0xB6,0x8E,0xB7,0x8F,0x80,0xD2,0xD3,0xD4,0xD8,0xD7,0x98,0x8E,0x8F,0x9
 283:source\fatfs/ff.c **** 				0xB5,0xD6,0xE0,0xE9,0xA5,0xA5,0xA6,0xA6,0xA8,0xA9,0xAA,0xAB,0xAC,0x21,0xAE,0xAF,0xB0,0xB1,0xB2,
 284:source\fatfs/ff.c **** 				0xC0,0xC1,0xC2,0xC3,0xC4,0xC5,0xC7,0xC7,0xC8,0xC9,0xCA,0xCB,0xCC,0xCD,0xCE,0xCF,0xD0,0xD1,0xD2,
 285:source\fatfs/ff.c **** 				0xE0,0xE1,0xE2,0xE3,0xE5,0xE5,0xE6,0xE7,0xE8,0xE9,0xEA,0xEB,0xDE,0x59,0xEE,0xEF,0xF0,0xF1,0xF2,
 286:source\fatfs/ff.c **** 
 287:source\fatfs/ff.c **** #elif _CODE_PAGE == 858	/* Multilingual Latin 1 + Euro (OEM) */
 288:source\fatfs/ff.c **** #define _DF1S	0
 289:source\fatfs/ff.c **** #define _EXCVT {0x80,0x9A,0x90,0xB6,0x8E,0xB7,0x8F,0x80,0xD2,0xD3,0xD4,0xD8,0xD7,0xDE,0x8E,0x8F,0x9
 290:source\fatfs/ff.c **** 				0xB5,0xD6,0xE0,0xE9,0xA5,0xA5,0xA6,0xA7,0xA8,0xA9,0xAA,0xAB,0xAC,0x21,0xAE,0xAF,0xB0,0xB1,0xB2,
 291:source\fatfs/ff.c **** 				0xC0,0xC1,0xC2,0xC3,0xC4,0xC5,0xC7,0xC7,0xC8,0xC9,0xCA,0xCB,0xCC,0xCD,0xCE,0xCF,0xD1,0xD1,0xD2,
 292:source\fatfs/ff.c **** 				0xE0,0xE1,0xE2,0xE3,0xE5,0xE5,0xE6,0xE7,0xE7,0xE9,0xEA,0xEB,0xED,0xED,0xEE,0xEF,0xF0,0xF1,0xF2,
 293:source\fatfs/ff.c **** 
 294:source\fatfs/ff.c **** #elif _CODE_PAGE == 862	/* Hebrew (OEM) */
 295:source\fatfs/ff.c **** #define _DF1S	0
 296:source\fatfs/ff.c **** #define _EXCVT {0x80,0x81,0x82,0x83,0x84,0x85,0x86,0x87,0x88,0x89,0x8A,0x8B,0x8C,0x8D,0x8E,0x8F,0x9
 297:source\fatfs/ff.c **** 				0x41,0x49,0x4F,0x55,0xA5,0xA5,0xA6,0xA7,0xA8,0xA9,0xAA,0xAB,0xAC,0x21,0xAE,0xAF,0xB0,0xB1,0xB2,
 298:source\fatfs/ff.c **** 				0xC0,0xC1,0xC2,0xC3,0xC4,0xC5,0xC6,0xC7,0xC8,0xC9,0xCA,0xCB,0xCC,0xCD,0xCE,0xCF,0xD0,0xD1,0xD2,
 299:source\fatfs/ff.c **** 				0xE0,0xE1,0xE2,0xE3,0xE4,0xE5,0xE6,0xE7,0xE8,0xE9,0xEA,0xEB,0xEC,0xED,0xEE,0xEF,0xF0,0xF1,0xF2,
 300:source\fatfs/ff.c **** 
 301:source\fatfs/ff.c **** #elif _CODE_PAGE == 866	/* Russian (OEM) */
 302:source\fatfs/ff.c **** #define _DF1S	0
 303:source\fatfs/ff.c **** #define _EXCVT {0x80,0x81,0x82,0x83,0x84,0x85,0x86,0x87,0x88,0x89,0x8A,0x8B,0x8C,0x8D,0x8E,0x8F,0x9
 304:source\fatfs/ff.c **** 				0x80,0x81,0x82,0x83,0x84,0x85,0x86,0x87,0x88,0x89,0x8A,0x8B,0x8C,0x8D,0x8E,0x8F,0xB0,0xB1,0xB2,
 305:source\fatfs/ff.c **** 				0xC0,0xC1,0xC2,0xC3,0xC4,0xC5,0xC6,0xC7,0xC8,0xC9,0xCA,0xCB,0xCC,0xCD,0xCE,0xCF,0xD0,0xD1,0xD2,
 306:source\fatfs/ff.c **** 				0x90,0x91,0x92,0x93,0x9d,0x95,0x96,0x97,0x98,0x99,0x9A,0x9B,0x9C,0x9D,0x9E,0x9F,0xF0,0xF0,0xF2,
 307:source\fatfs/ff.c **** 
 308:source\fatfs/ff.c **** #elif _CODE_PAGE == 874	/* Thai (OEM, Windows) */
 309:source\fatfs/ff.c **** #define _DF1S	0
 310:source\fatfs/ff.c **** #define _EXCVT {0x80,0x81,0x82,0x83,0x84,0x85,0x86,0x87,0x88,0x89,0x8A,0x8B,0x8C,0x8D,0x8E,0x8F,0x9
 311:source\fatfs/ff.c **** 				0xA0,0xA1,0xA2,0xA3,0xA4,0xA5,0xA6,0xA7,0xA8,0xA9,0xAA,0xAB,0xAC,0xAD,0xAE,0xAF,0xB0,0xB1,0xB2,
 312:source\fatfs/ff.c **** 				0xC0,0xC1,0xC2,0xC3,0xC4,0xC5,0xC6,0xC7,0xC8,0xC9,0xCA,0xCB,0xCC,0xCD,0xCE,0xCF,0xD0,0xD1,0xD2,
 313:source\fatfs/ff.c **** 				0xE0,0xE1,0xE2,0xE3,0xE4,0xE5,0xE6,0xE7,0xE8,0xE9,0xEA,0xEB,0xEC,0xED,0xEE,0xEF,0xF0,0xF1,0xF2,
 314:source\fatfs/ff.c **** 
 315:source\fatfs/ff.c **** #elif _CODE_PAGE == 1250 /* Central Europe (Windows) */
 316:source\fatfs/ff.c **** #define _DF1S	0
 317:source\fatfs/ff.c **** #define _EXCVT {0x80,0x81,0x82,0x83,0x84,0x85,0x86,0x87,0x88,0x89,0x8A,0x8B,0x8C,0x8D,0x8E,0x8F,0x9
 318:source\fatfs/ff.c **** 				0xA0,0xA1,0xA2,0xA3,0xA4,0xA5,0xA6,0xA7,0xA8,0xA9,0xAA,0xAB,0xAC,0xAD,0xAE,0xAF,0xB0,0xB1,0xB2,
 319:source\fatfs/ff.c **** 				0xC0,0xC1,0xC2,0xC3,0xC4,0xC5,0xC6,0xC7,0xC8,0xC9,0xCA,0xCB,0xCC,0xCD,0xCE,0xCF,0xD0,0xD1,0xD2,
 320:source\fatfs/ff.c **** 				0xC0,0xC1,0xC2,0xC3,0xC4,0xC5,0xC6,0xC7,0xC8,0xC9,0xCA,0xCB,0xCC,0xCD,0xCE,0xCF,0xD0,0xD1,0xD2,
 321:source\fatfs/ff.c **** 
 322:source\fatfs/ff.c **** #elif _CODE_PAGE == 1251 /* Cyrillic (Windows) */
 323:source\fatfs/ff.c **** #define _DF1S	0
 324:source\fatfs/ff.c **** #define _EXCVT {0x80,0x81,0x82,0x82,0x84,0x85,0x86,0x87,0x88,0x89,0x8A,0x8B,0x8C,0x8D,0x8E,0x8F,0x8
 325:source\fatfs/ff.c **** 				0xA0,0xA2,0xA2,0xA3,0xA4,0xA5,0xA6,0xA7,0xA8,0xA9,0xAA,0xAB,0xAC,0xAD,0xAE,0xAF,0xB0,0xB1,0xB2,
 326:source\fatfs/ff.c **** 				0xC0,0xC1,0xC2,0xC3,0xC4,0xC5,0xC6,0xC7,0xC8,0xC9,0xCA,0xCB,0xCC,0xCD,0xCE,0xCF,0xD0,0xD1,0xD2,
 327:source\fatfs/ff.c **** 				0xC0,0xC1,0xC2,0xC3,0xC4,0xC5,0xC6,0xC7,0xC8,0xC9,0xCA,0xCB,0xCC,0xCD,0xCE,0xCF,0xD0,0xD1,0xD2,
 328:source\fatfs/ff.c **** 
 329:source\fatfs/ff.c **** #elif _CODE_PAGE == 1252 /* Latin 1 (Windows) */
 330:source\fatfs/ff.c **** #define _DF1S	0
 331:source\fatfs/ff.c **** #define _EXCVT {0x80,0x81,0x82,0x83,0x84,0x85,0x86,0x87,0x88,0x89,0x8A,0x8B,0x8C,0x8D,0x8E,0x8F,0x9
 332:source\fatfs/ff.c **** 				0xA0,0x21,0xA2,0xA3,0xA4,0xA5,0xA6,0xA7,0xA8,0xA9,0xAA,0xAB,0xAC,0xAD,0xAE,0xAF,0xB0,0xB1,0xB2,
 333:source\fatfs/ff.c **** 				0xC0,0xC1,0xC2,0xC3,0xC4,0xC5,0xC6,0xC7,0xC8,0xC9,0xCA,0xCB,0xCC,0xCD,0xCE,0xCF,0xD0,0xD1,0xD2,
 334:source\fatfs/ff.c **** 				0xC0,0xC1,0xC2,0xC3,0xC4,0xC5,0xC6,0xC7,0xC8,0xC9,0xCA,0xCB,0xCC,0xCD,0xCE,0xCF,0xD0,0xD1,0xD2,
 335:source\fatfs/ff.c **** 
 336:source\fatfs/ff.c **** #elif _CODE_PAGE == 1253 /* Greek (Windows) */
 337:source\fatfs/ff.c **** #define _DF1S	0
 338:source\fatfs/ff.c **** #define _EXCVT {0x80,0x81,0x82,0x83,0x84,0x85,0x86,0x87,0x88,0x89,0x8A,0x8B,0x8C,0x8D,0x8E,0x8F,0x9
 339:source\fatfs/ff.c **** 				0xA0,0xA1,0xA2,0xA3,0xA4,0xA5,0xA6,0xA7,0xA8,0xA9,0xAA,0xAB,0xAC,0xAD,0xAE,0xAF,0xB0,0xB1,0xB2,
 340:source\fatfs/ff.c **** 				0xC0,0xC1,0xC2,0xC3,0xC4,0xC5,0xC6,0xC7,0xC8,0xC9,0xCA,0xCB,0xCC,0xCD,0xCE,0xCF,0xD0,0xD1,0xD2,
 341:source\fatfs/ff.c **** 				0xE0,0xC1,0xC2,0xC3,0xC4,0xC5,0xC6,0xC7,0xC8,0xC9,0xCA,0xCB,0xCC,0xCD,0xCE,0xCF,0xD0,0xD1,0xF2,
 342:source\fatfs/ff.c **** 
 343:source\fatfs/ff.c **** #elif _CODE_PAGE == 1254 /* Turkish (Windows) */
 344:source\fatfs/ff.c **** #define _DF1S	0
 345:source\fatfs/ff.c **** #define _EXCVT {0x80,0x81,0x82,0x83,0x84,0x85,0x86,0x87,0x88,0x89,0x8A,0x8B,0x8C,0x8D,0x8E,0x8F,0x9
 346:source\fatfs/ff.c **** 				0xA0,0x21,0xA2,0xA3,0xA4,0xA5,0xA6,0xA7,0xA8,0xA9,0xAA,0xAB,0xAC,0xAD,0xAE,0xAF,0xB0,0xB1,0xB2,
 347:source\fatfs/ff.c **** 				0xC0,0xC1,0xC2,0xC3,0xC4,0xC5,0xC6,0xC7,0xC8,0xC9,0xCA,0xCB,0xCC,0xCD,0xCE,0xCF,0xD0,0xD1,0xD2,
 348:source\fatfs/ff.c **** 				0xC0,0xC1,0xC2,0xC3,0xC4,0xC5,0xC6,0xC7,0xC8,0xC9,0xCA,0xCB,0xCC,0xCD,0xCE,0xCF,0xD0,0xD1,0xD2,
 349:source\fatfs/ff.c **** 
 350:source\fatfs/ff.c **** #elif _CODE_PAGE == 1255 /* Hebrew (Windows) */
 351:source\fatfs/ff.c **** #define _DF1S	0
 352:source\fatfs/ff.c **** #define _EXCVT {0x80,0x81,0x82,0x83,0x84,0x85,0x86,0x87,0x88,0x89,0x8A,0x8B,0x8C,0x8D,0x8E,0x8F,0x9
 353:source\fatfs/ff.c **** 				0xA0,0x21,0xA2,0xA3,0xA4,0xA5,0xA6,0xA7,0xA8,0xA9,0xAA,0xAB,0xAC,0xAD,0xAE,0xAF,0xB0,0xB1,0xB2,
 354:source\fatfs/ff.c **** 				0xC0,0xC1,0xC2,0xC3,0xC4,0xC5,0xC6,0xC7,0xC8,0xC9,0xCA,0xCB,0xCC,0xCD,0xCE,0xCF,0xD0,0xD1,0xD2,
 355:source\fatfs/ff.c **** 				0xE0,0xE1,0xE2,0xE3,0xE4,0xE5,0xE6,0xE7,0xE8,0xE9,0xEA,0xEB,0xEC,0xED,0xEE,0xEF,0xF0,0xF1,0xF2,
 356:source\fatfs/ff.c **** 
 357:source\fatfs/ff.c **** #elif _CODE_PAGE == 1256 /* Arabic (Windows) */
 358:source\fatfs/ff.c **** #define _DF1S	0
 359:source\fatfs/ff.c **** #define _EXCVT {0x80,0x81,0x82,0x83,0x84,0x85,0x86,0x87,0x88,0x89,0x8A,0x8B,0x8C,0x8D,0x8E,0x8F,0x9
 360:source\fatfs/ff.c **** 				0xA0,0xA1,0xA2,0xA3,0xA4,0xA5,0xA6,0xA7,0xA8,0xA9,0xAA,0xAB,0xAC,0xAD,0xAE,0xAF,0xB0,0xB1,0xB2,
 361:source\fatfs/ff.c **** 				0xC0,0xC1,0xC2,0xC3,0xC4,0xC5,0xC6,0xC7,0xC8,0xC9,0xCA,0xCB,0xCC,0xCD,0xCE,0xCF,0xD0,0xD1,0xD2,
 362:source\fatfs/ff.c **** 				0x41,0xE1,0x41,0xE3,0xE4,0xE5,0xE6,0x43,0x45,0x45,0x45,0x45,0xEC,0xED,0x49,0x49,0xF0,0xF1,0xF2,
 363:source\fatfs/ff.c **** 
 364:source\fatfs/ff.c **** #elif _CODE_PAGE == 1257 /* Baltic (Windows) */
 365:source\fatfs/ff.c **** #define _DF1S	0
 366:source\fatfs/ff.c **** #define _EXCVT {0x80,0x81,0x82,0x83,0x84,0x85,0x86,0x87,0x88,0x89,0x8A,0x8B,0x8C,0x8D,0x8E,0x8F,0x9
 367:source\fatfs/ff.c **** 				0xA0,0xA1,0xA2,0xA3,0xA4,0xA5,0xA6,0xA7,0xA8,0xA9,0xAA,0xAB,0xAC,0xAD,0xAE,0xAF,0xB0,0xB1,0xB2,
 368:source\fatfs/ff.c **** 				0xC0,0xC1,0xC2,0xC3,0xC4,0xC5,0xC6,0xC7,0xC8,0xC9,0xCA,0xCB,0xCC,0xCD,0xCE,0xCF,0xD0,0xD1,0xD2,
 369:source\fatfs/ff.c **** 				0xC0,0xC1,0xC2,0xC3,0xC4,0xC5,0xC6,0xC7,0xC8,0xC9,0xCA,0xCB,0xCC,0xCD,0xCE,0xCF,0xD0,0xD1,0xD2,
 370:source\fatfs/ff.c **** 
 371:source\fatfs/ff.c **** #elif _CODE_PAGE == 1258 /* Vietnam (OEM, Windows) */
 372:source\fatfs/ff.c **** #define _DF1S	0
 373:source\fatfs/ff.c **** #define _EXCVT {0x80,0x81,0x82,0x83,0x84,0x85,0x86,0x87,0x88,0x89,0x8A,0x8B,0x8C,0x8D,0x8E,0x8F,0x9
 374:source\fatfs/ff.c **** 				0xA0,0x21,0xA2,0xA3,0xA4,0xA5,0xA6,0xA7,0xA8,0xA9,0xAA,0xAB,0xAC,0xAD,0xAE,0xAF,0xB0,0xB1,0xB2,
 375:source\fatfs/ff.c **** 				0xC0,0xC1,0xC2,0xC3,0xC4,0xC5,0xC6,0xC7,0xC8,0xC9,0xCA,0xCB,0xCC,0xCD,0xCE,0xCF,0xD0,0xD1,0xD2,
 376:source\fatfs/ff.c **** 				0xC0,0xC1,0xC2,0xC3,0xC4,0xC5,0xC6,0xC7,0xC8,0xC9,0xCA,0xCB,0xEC,0xCD,0xCE,0xCF,0xD0,0xD1,0xF2,
 377:source\fatfs/ff.c **** 
 378:source\fatfs/ff.c **** #elif _CODE_PAGE == 1	/* ASCII (for only non-LFN cfg) */
 379:source\fatfs/ff.c **** #if _USE_LFN
 380:source\fatfs/ff.c **** #error Cannot use LFN feature without valid code page.
 381:source\fatfs/ff.c **** #endif
 382:source\fatfs/ff.c **** #define _DF1S	0
 383:source\fatfs/ff.c **** 
 384:source\fatfs/ff.c **** #else
 385:source\fatfs/ff.c **** #error Unknown code page
 386:source\fatfs/ff.c **** 
 387:source\fatfs/ff.c **** #endif
 388:source\fatfs/ff.c **** 
 389:source\fatfs/ff.c **** 
 390:source\fatfs/ff.c **** /* Character code support macros */
 391:source\fatfs/ff.c **** #define IsUpper(c)	(((c)>='A')&&((c)<='Z'))
 392:source\fatfs/ff.c **** #define IsLower(c)	(((c)>='a')&&((c)<='z'))
 393:source\fatfs/ff.c **** #define IsDigit(c)	(((c)>='0')&&((c)<='9'))
 394:source\fatfs/ff.c **** 
 395:source\fatfs/ff.c **** #if _DF1S		/* Code page is DBCS */
 396:source\fatfs/ff.c **** 
 397:source\fatfs/ff.c **** #ifdef _DF2S	/* Two 1st byte areas */
 398:source\fatfs/ff.c **** #define IsDBCS1(c)	(((BYTE)(c) >= _DF1S && (BYTE)(c) <= _DF1E) || ((BYTE)(c) >= _DF2S && (BYTE)(c) 
 399:source\fatfs/ff.c **** #else			/* One 1st byte area */
 400:source\fatfs/ff.c **** #define IsDBCS1(c)	((BYTE)(c) >= _DF1S && (BYTE)(c) <= _DF1E)
 401:source\fatfs/ff.c **** #endif
 402:source\fatfs/ff.c **** 
 403:source\fatfs/ff.c **** #ifdef _DS3S	/* Three 2nd byte areas */
 404:source\fatfs/ff.c **** #define IsDBCS2(c)	(((BYTE)(c) >= _DS1S && (BYTE)(c) <= _DS1E) || ((BYTE)(c) >= _DS2S && (BYTE)(c) 
 405:source\fatfs/ff.c **** #else			/* Two 2nd byte areas */
 406:source\fatfs/ff.c **** #define IsDBCS2(c)	(((BYTE)(c) >= _DS1S && (BYTE)(c) <= _DS1E) || ((BYTE)(c) >= _DS2S && (BYTE)(c) 
 407:source\fatfs/ff.c **** #endif
 408:source\fatfs/ff.c **** 
 409:source\fatfs/ff.c **** #else			/* Code page is SBCS */
 410:source\fatfs/ff.c **** 
 411:source\fatfs/ff.c **** #define IsDBCS1(c)	0
 412:source\fatfs/ff.c **** #define IsDBCS2(c)	0
 413:source\fatfs/ff.c **** 
 414:source\fatfs/ff.c **** #endif /* _DF1S */
 415:source\fatfs/ff.c **** 
 416:source\fatfs/ff.c **** 
 417:source\fatfs/ff.c **** /* Name status flags */
 418:source\fatfs/ff.c **** #define NSFLAG		11		/* Index of name status byte in fn[] */
 419:source\fatfs/ff.c **** #define NS_LOSS		0x01	/* Out of 8.3 format */
 420:source\fatfs/ff.c **** #define NS_LFN		0x02	/* Force to create LFN entry */
 421:source\fatfs/ff.c **** #define NS_LAST		0x04	/* Last segment */
 422:source\fatfs/ff.c **** #define NS_BODY		0x08	/* Lower case flag (body) */
 423:source\fatfs/ff.c **** #define NS_EXT		0x10	/* Lower case flag (ext) */
 424:source\fatfs/ff.c **** #define NS_DOT		0x20	/* Dot entry */
 425:source\fatfs/ff.c **** 
 426:source\fatfs/ff.c **** 
 427:source\fatfs/ff.c **** /* FAT sub-type boundaries (Differ from specs but correct for real DOS/Windows) */
 428:source\fatfs/ff.c **** #define MIN_FAT16	4086U	/* Minimum number of clusters as FAT16 */
 429:source\fatfs/ff.c **** #define	MIN_FAT32	65526U	/* Minimum number of clusters as FAT32 */
 430:source\fatfs/ff.c **** 
 431:source\fatfs/ff.c **** 
 432:source\fatfs/ff.c **** /* FatFs refers the members in the FAT structures as byte array instead of
 433:source\fatfs/ff.c **** / structure member because the structure is not binary compatible between
 434:source\fatfs/ff.c **** / different platforms */
 435:source\fatfs/ff.c **** 
 436:source\fatfs/ff.c **** #define BS_jmpBoot			0		/* x86 jump instruction (3) */
 437:source\fatfs/ff.c **** #define BS_OEMName			3		/* OEM name (8) */
 438:source\fatfs/ff.c **** #define BPB_BytsPerSec		11		/* Sector size [byte] (2) */
 439:source\fatfs/ff.c **** #define BPB_SecPerClus		13		/* Cluster size [sector] (1) */
 440:source\fatfs/ff.c **** #define BPB_RsvdSecCnt		14		/* Size of reserved area [sector] (2) */
 441:source\fatfs/ff.c **** #define BPB_NumFATs			16		/* Number of FAT copies (1) */
 442:source\fatfs/ff.c **** #define BPB_RootEntCnt		17		/* Number of root directory entries for FAT12/16 (2) */
 443:source\fatfs/ff.c **** #define BPB_TotSec16		19		/* Volume size [sector] (2) */
 444:source\fatfs/ff.c **** #define BPB_Media			21		/* Media descriptor (1) */
 445:source\fatfs/ff.c **** #define BPB_FATSz16			22		/* FAT size [sector] (2) */
 446:source\fatfs/ff.c **** #define BPB_SecPerTrk		24		/* Track size [sector] (2) */
 447:source\fatfs/ff.c **** #define BPB_NumHeads		26		/* Number of heads (2) */
 448:source\fatfs/ff.c **** #define BPB_HiddSec			28		/* Number of special hidden sectors (4) */
 449:source\fatfs/ff.c **** #define BPB_TotSec32		32		/* Volume size [sector] (4) */
 450:source\fatfs/ff.c **** #define BS_DrvNum			36		/* Physical drive number (2) */
 451:source\fatfs/ff.c **** #define BS_BootSig			38		/* Extended boot signature (1) */
 452:source\fatfs/ff.c **** #define BS_VolID			39		/* Volume serial number (4) */
 453:source\fatfs/ff.c **** #define BS_VolLab			43		/* Volume label (8) */
 454:source\fatfs/ff.c **** #define BS_FilSysType		54		/* File system type (1) */
 455:source\fatfs/ff.c **** #define BPB_FATSz32			36		/* FAT size [sector] (4) */
 456:source\fatfs/ff.c **** #define BPB_ExtFlags		40		/* Extended flags (2) */
 457:source\fatfs/ff.c **** #define BPB_FSVer			42		/* File system version (2) */
 458:source\fatfs/ff.c **** #define BPB_RootClus		44		/* Root directory first cluster (4) */
 459:source\fatfs/ff.c **** #define BPB_FSInfo			48		/* Offset of FSINFO sector (2) */
 460:source\fatfs/ff.c **** #define BPB_BkBootSec		50		/* Offset of backup boot sector (2) */
 461:source\fatfs/ff.c **** #define BS_DrvNum32			64		/* Physical drive number (2) */
 462:source\fatfs/ff.c **** #define BS_BootSig32		66		/* Extended boot signature (1) */
 463:source\fatfs/ff.c **** #define BS_VolID32			67		/* Volume serial number (4) */
 464:source\fatfs/ff.c **** #define BS_VolLab32			71		/* Volume label (8) */
 465:source\fatfs/ff.c **** #define BS_FilSysType32		82		/* File system type (1) */
 466:source\fatfs/ff.c **** #define	FSI_LeadSig			0		/* FSI: Leading signature (4) */
 467:source\fatfs/ff.c **** #define	FSI_StrucSig		484		/* FSI: Structure signature (4) */
 468:source\fatfs/ff.c **** #define	FSI_Free_Count		488		/* FSI: Number of free clusters (4) */
 469:source\fatfs/ff.c **** #define	FSI_Nxt_Free		492		/* FSI: Last allocated cluster (4) */
 470:source\fatfs/ff.c **** #define MBR_Table			446		/* MBR: Partition table offset (2) */
 471:source\fatfs/ff.c **** #define	SZ_PTE				16		/* MBR: Size of a partition table entry */
 472:source\fatfs/ff.c **** #define BS_55AA				510		/* Signature word (2) */
 473:source\fatfs/ff.c **** 
 474:source\fatfs/ff.c **** #define	DIR_Name			0		/* Short file name (11) */
 475:source\fatfs/ff.c **** #define	DIR_Attr			11		/* Attribute (1) */
 476:source\fatfs/ff.c **** #define	DIR_NTres			12		/* Lower case flag (1) */
 477:source\fatfs/ff.c **** #define DIR_CrtTimeTenth	13		/* Created time sub-second (1) */
 478:source\fatfs/ff.c **** #define	DIR_CrtTime			14		/* Created time (2) */
 479:source\fatfs/ff.c **** #define	DIR_CrtDate			16		/* Created date (2) */
 480:source\fatfs/ff.c **** #define DIR_LstAccDate		18		/* Last accessed date (2) */
 481:source\fatfs/ff.c **** #define	DIR_FstClusHI		20		/* Higher 16-bit of first cluster (2) */
 482:source\fatfs/ff.c **** #define	DIR_WrtTime			22		/* Modified time (2) */
 483:source\fatfs/ff.c **** #define	DIR_WrtDate			24		/* Modified date (2) */
 484:source\fatfs/ff.c **** #define	DIR_FstClusLO		26		/* Lower 16-bit of first cluster (2) */
 485:source\fatfs/ff.c **** #define	DIR_FileSize		28		/* File size (4) */
 486:source\fatfs/ff.c **** #define	LDIR_Ord			0		/* LFN entry order and LLE flag (1) */
 487:source\fatfs/ff.c **** #define	LDIR_Attr			11		/* LFN attribute (1) */
 488:source\fatfs/ff.c **** #define	LDIR_Type			12		/* LFN type (1) */
 489:source\fatfs/ff.c **** #define	LDIR_Chksum			13		/* Sum of corresponding SFN entry */
 490:source\fatfs/ff.c **** #define	LDIR_FstClusLO		26		/* Must be zero (0) */
 491:source\fatfs/ff.c **** #define	SZ_DIRE				32		/* Size of a directory entry */
 492:source\fatfs/ff.c **** #define	LLEF				0x40	/* Last long entry flag in LDIR_Ord */
 493:source\fatfs/ff.c **** #define	DDEM				0xE5	/* Deleted directory entry mark at DIR_Name[0] */
 494:source\fatfs/ff.c **** #define	RDDEM				0x05	/* Replacement of the character collides with DDEM */
 495:source\fatfs/ff.c **** 
 496:source\fatfs/ff.c **** 
 497:source\fatfs/ff.c **** 
 498:source\fatfs/ff.c **** 
 499:source\fatfs/ff.c **** /*------------------------------------------------------------*/
 500:source\fatfs/ff.c **** /* Module private work area                                   */
 501:source\fatfs/ff.c **** /*------------------------------------------------------------*/
 502:source\fatfs/ff.c **** /* Remark: Uninitialized variables with static duration are
 503:source\fatfs/ff.c **** /  guaranteed zero/null at start-up. If not, either the linker
 504:source\fatfs/ff.c **** /  or start-up routine being used is out of ANSI-C standard.
 505:source\fatfs/ff.c **** */
 506:source\fatfs/ff.c **** 
 507:source\fatfs/ff.c **** #if _VOLUMES < 1 || _VOLUMES > 9
 508:source\fatfs/ff.c **** #error Wrong _VOLUMES setting
 509:source\fatfs/ff.c **** #endif
 510:source\fatfs/ff.c **** static FATFS *FatFs[_VOLUMES];	/* Pointer to the file system objects (logical drives) */
 511:source\fatfs/ff.c **** static WORD Fsid;				/* File system mount ID */
 512:source\fatfs/ff.c **** 
 513:source\fatfs/ff.c **** #if _FS_RPATH && _VOLUMES >= 2
 514:source\fatfs/ff.c **** static BYTE CurrVol;			/* Current drive */
 515:source\fatfs/ff.c **** #endif
 516:source\fatfs/ff.c **** 
 517:source\fatfs/ff.c **** #if _FS_LOCK
 518:source\fatfs/ff.c **** static FILESEM Files[_FS_LOCK];	/* Open object lock semaphores */
 519:source\fatfs/ff.c **** #endif
 520:source\fatfs/ff.c **** 
 521:source\fatfs/ff.c **** #if _USE_LFN == 0			/* Non LFN feature */
 522:source\fatfs/ff.c **** #define	DEFINE_NAMEBUF		BYTE sfn[12]
 523:source\fatfs/ff.c **** #define INIT_BUF(dobj)		(dobj).fn = sfn
 524:source\fatfs/ff.c **** #define	FREE_BUF()
 525:source\fatfs/ff.c **** #else
 526:source\fatfs/ff.c **** #if _MAX_LFN < 12 || _MAX_LFN > 255
 527:source\fatfs/ff.c **** #error Wrong _MAX_LFN setting
 528:source\fatfs/ff.c **** #endif
 529:source\fatfs/ff.c **** #if _USE_LFN == 1			/* LFN feature with static working buffer */
 530:source\fatfs/ff.c **** static WCHAR LfnBuf[_MAX_LFN + 1];
 531:source\fatfs/ff.c **** #define	DEFINE_NAMEBUF		BYTE sfn[12]
 532:source\fatfs/ff.c **** #define INIT_BUF(dobj)		{ (dobj).fn = sfn; (dobj).lfn = LfnBuf; }
 533:source\fatfs/ff.c **** #define	FREE_BUF()
 534:source\fatfs/ff.c **** #elif _USE_LFN == 2 		/* LFN feature with dynamic working buffer on the stack */
 535:source\fatfs/ff.c **** #define	DEFINE_NAMEBUF		BYTE sfn[12]; WCHAR lbuf[_MAX_LFN + 1]
 536:source\fatfs/ff.c **** #define INIT_BUF(dobj)		{ (dobj).fn = sfn; (dobj).lfn = lbuf; }
 537:source\fatfs/ff.c **** #define	FREE_BUF()
 538:source\fatfs/ff.c **** #elif _USE_LFN == 3 		/* LFN feature with dynamic working buffer on the heap */
 539:source\fatfs/ff.c **** #define	DEFINE_NAMEBUF		BYTE sfn[12]; WCHAR *lfn
 540:source\fatfs/ff.c **** #define INIT_BUF(dobj)		{ lfn = ff_memalloc((_MAX_LFN + 1) * 2); if (!lfn) LEAVE_FF((dobj).fs, FR_N
 541:source\fatfs/ff.c **** #define	FREE_BUF()			ff_memfree(lfn)
 542:source\fatfs/ff.c **** #else
 543:source\fatfs/ff.c **** #error Wrong _USE_LFN setting
 544:source\fatfs/ff.c **** #endif
 545:source\fatfs/ff.c **** #endif
 546:source\fatfs/ff.c **** 
 547:source\fatfs/ff.c **** #ifdef _EXCVT
 548:source\fatfs/ff.c **** static const BYTE ExCvt[] = _EXCVT;	/* Upper conversion table for extended characters */
 549:source\fatfs/ff.c **** #endif
 550:source\fatfs/ff.c **** 
 551:source\fatfs/ff.c **** 
 552:source\fatfs/ff.c **** 
 553:source\fatfs/ff.c **** 
 554:source\fatfs/ff.c **** 
 555:source\fatfs/ff.c **** 
 556:source\fatfs/ff.c **** /*--------------------------------------------------------------------------
 557:source\fatfs/ff.c **** 
 558:source\fatfs/ff.c ****    Module Private Functions
 559:source\fatfs/ff.c **** 
 560:source\fatfs/ff.c **** ---------------------------------------------------------------------------*/
 561:source\fatfs/ff.c **** DWORD clust2sect (FATFS* fs, DWORD clst);
 562:source\fatfs/ff.c **** DWORD get_fat (FATFS* fs,	DWORD clst);
 563:source\fatfs/ff.c **** 
 564:source\fatfs/ff.c **** #if !_FS_READONLY
 565:source\fatfs/ff.c **** FRESULT put_fat (FATFS* fs,	DWORD clst,	DWORD val);
 566:source\fatfs/ff.c **** #endif /* !_FS_READONLY */
 567:source\fatfs/ff.c **** 
 568:source\fatfs/ff.c **** #if _USE_LFN
 569:source\fatfs/ff.c **** static void gen_numname (BYTE* dst, const BYTE* src, const WCHAR* lfn, UINT seq);
 570:source\fatfs/ff.c **** #endif /* !_USE_LFN */
 571:source\fatfs/ff.c **** 
 572:source\fatfs/ff.c **** 
 573:source\fatfs/ff.c **** 
 574:source\fatfs/ff.c **** /*-----------------------------------------------------------------------*/
 575:source\fatfs/ff.c **** /* String functions                                                      */
 576:source\fatfs/ff.c **** /*-----------------------------------------------------------------------*/
 577:source\fatfs/ff.c **** 
 578:source\fatfs/ff.c **** /* Copy memory to memory */
 579:source\fatfs/ff.c **** static
 580:source\fatfs/ff.c **** void mem_cpy (void* dst, const void* src, UINT cnt) {
  29              		.loc 1 580 53 view -0
  30              		.cfi_startproc
  31              		@ args = 0, pretend = 0, frame = 0
  32              		@ frame_needed = 0, uses_anonymous_args = 0
  33              		@ link register save eliminated.
 581:source\fatfs/ff.c **** 	BYTE *d = (BYTE*)dst;
  34              		.loc 1 581 2 view .LVU1
 582:source\fatfs/ff.c **** 	const BYTE *s = (const BYTE*)src;
  35              		.loc 1 582 2 view .LVU2
 583:source\fatfs/ff.c **** 
 584:source\fatfs/ff.c **** #if _WORD_ACCESS == 1
 585:source\fatfs/ff.c **** 	while (cnt >= sizeof (int)) {
 586:source\fatfs/ff.c **** 		*(int*)d = *(int*)s;
 587:source\fatfs/ff.c **** 		d += sizeof (int); s += sizeof (int);
 588:source\fatfs/ff.c **** 		cnt -= sizeof (int);
 589:source\fatfs/ff.c **** 	}
 590:source\fatfs/ff.c **** #endif
 591:source\fatfs/ff.c **** 	while (cnt--)
  36              		.loc 1 591 2 view .LVU3
  37 0000 0138     		subs	r0, r0, #1
  38              	.LVL1:
  39              		.loc 1 591 2 is_stmt 0 view .LVU4
  40 0002 0A44     		add	r2, r2, r1
  41              	.LVL2:
  42              	.L2:
  43              		.loc 1 591 8 is_stmt 1 view .LVU5
  44              		.loc 1 591 8 is_stmt 0 view .LVU6
  45 0004 9142     		cmp	r1, r2
  46 0006 00D1     		bne	.L3
 592:source\fatfs/ff.c **** 		*d++ = *s++;
 593:source\fatfs/ff.c **** }
  47              		.loc 1 593 1 view .LVU7
  48 0008 7047     		bx	lr
  49              	.L3:
 592:source\fatfs/ff.c **** 		*d++ = *s++;
  50              		.loc 1 592 3 is_stmt 1 view .LVU8
  51              	.LVL3:
 592:source\fatfs/ff.c **** 		*d++ = *s++;
  52              		.loc 1 592 10 is_stmt 0 view .LVU9
  53 000a 11F8013B 		ldrb	r3, [r1], #1	@ zero_extendqisi2
  54              	.LVL4:
 592:source\fatfs/ff.c **** 		*d++ = *s++;
  55              		.loc 1 592 8 view .LVU10
  56 000e 00F8013F 		strb	r3, [r0, #1]!
  57 0012 F7E7     		b	.L2
  58              		.cfi_endproc
  59              	.LFE130:
  61              		.section	.text.mem_set,"ax",%progbits
  62              		.align	1
  63              		.syntax unified
  64              		.thumb
  65              		.thumb_func
  67              	mem_set:
  68              	.LVL5:
  69              	.LFB131:
 594:source\fatfs/ff.c **** 
 595:source\fatfs/ff.c **** /* Fill memory */
 596:source\fatfs/ff.c **** static
 597:source\fatfs/ff.c **** void mem_set (void* dst, int val, UINT cnt) {
  70              		.loc 1 597 45 is_stmt 1 view -0
  71              		.cfi_startproc
  72              		@ args = 0, pretend = 0, frame = 0
  73              		@ frame_needed = 0, uses_anonymous_args = 0
  74              		@ link register save eliminated.
 598:source\fatfs/ff.c **** 	BYTE *d = (BYTE*)dst;
  75              		.loc 1 598 2 view .LVU12
 599:source\fatfs/ff.c **** 
 600:source\fatfs/ff.c **** 	while (cnt--)
  76              		.loc 1 600 2 view .LVU13
  77 0000 0244     		add	r2, r2, r0
  78              	.LVL6:
  79              	.L5:
  80              		.loc 1 600 8 view .LVU14
  81              		.loc 1 600 8 is_stmt 0 view .LVU15
  82 0002 9042     		cmp	r0, r2
  83 0004 00D1     		bne	.L6
 601:source\fatfs/ff.c **** 		*d++ = (BYTE)val;
 602:source\fatfs/ff.c **** }
  84              		.loc 1 602 1 view .LVU16
  85 0006 7047     		bx	lr
  86              	.L6:
 601:source\fatfs/ff.c **** 		*d++ = (BYTE)val;
  87              		.loc 1 601 3 is_stmt 1 view .LVU17
  88              	.LVL7:
 601:source\fatfs/ff.c **** 		*d++ = (BYTE)val;
  89              		.loc 1 601 10 is_stmt 0 view .LVU18
  90 0008 00F8011B 		strb	r1, [r0], #1
  91              	.LVL8:
 601:source\fatfs/ff.c **** 		*d++ = (BYTE)val;
  92              		.loc 1 601 10 view .LVU19
  93 000c F9E7     		b	.L5
  94              		.cfi_endproc
  95              	.LFE131:
  97              		.section	.text.chk_lock,"ax",%progbits
  98              		.align	1
  99              		.syntax unified
 100              		.thumb
 101              		.thumb_func
 103              	chk_lock:
 104              	.LVL9:
 105              	.LFB134:
 603:source\fatfs/ff.c **** 
 604:source\fatfs/ff.c **** /* Compare memory to memory */
 605:source\fatfs/ff.c **** static
 606:source\fatfs/ff.c **** int mem_cmp (const void* dst, const void* src, UINT cnt) {
 607:source\fatfs/ff.c **** 	const BYTE *d = (const BYTE *)dst, *s = (const BYTE *)src;
 608:source\fatfs/ff.c **** 	int r = 0;
 609:source\fatfs/ff.c **** 
 610:source\fatfs/ff.c **** 	while (cnt-- && (r = *d++ - *s++) == 0) ;
 611:source\fatfs/ff.c **** 	return r;
 612:source\fatfs/ff.c **** }
 613:source\fatfs/ff.c **** 
 614:source\fatfs/ff.c **** /* Check if chr is contained in the string */
 615:source\fatfs/ff.c **** static
 616:source\fatfs/ff.c **** int chk_chr (const char* str, int chr) {
 617:source\fatfs/ff.c **** 	while (*str && *str != chr) str++;
 618:source\fatfs/ff.c **** 	return *str;
 619:source\fatfs/ff.c **** }
 620:source\fatfs/ff.c **** 
 621:source\fatfs/ff.c **** 
 622:source\fatfs/ff.c **** 
 623:source\fatfs/ff.c **** 
 624:source\fatfs/ff.c **** /*-----------------------------------------------------------------------*/
 625:source\fatfs/ff.c **** /* Request/Release grant to access the volume                            */
 626:source\fatfs/ff.c **** /*-----------------------------------------------------------------------*/
 627:source\fatfs/ff.c **** #if _FS_REENTRANT
 628:source\fatfs/ff.c **** static
 629:source\fatfs/ff.c **** int lock_fs (
 630:source\fatfs/ff.c **** 	FATFS* fs		/* File system object */
 631:source\fatfs/ff.c **** )
 632:source\fatfs/ff.c **** {
 633:source\fatfs/ff.c **** 	return ff_req_grant(fs->sobj);
 634:source\fatfs/ff.c **** }
 635:source\fatfs/ff.c **** 
 636:source\fatfs/ff.c **** 
 637:source\fatfs/ff.c **** static
 638:source\fatfs/ff.c **** void unlock_fs (
 639:source\fatfs/ff.c **** 	FATFS* fs,		/* File system object */
 640:source\fatfs/ff.c **** 	FRESULT res		/* Result code to be returned */
 641:source\fatfs/ff.c **** )
 642:source\fatfs/ff.c **** {
 643:source\fatfs/ff.c **** 	if (fs &&
 644:source\fatfs/ff.c **** 		res != FR_NOT_ENABLED &&
 645:source\fatfs/ff.c **** 		res != FR_INVALID_DRIVE &&
 646:source\fatfs/ff.c **** 		res != FR_INVALID_OBJECT &&
 647:source\fatfs/ff.c **** 		res != FR_TIMEOUT) {
 648:source\fatfs/ff.c **** 		ff_rel_grant(fs->sobj);
 649:source\fatfs/ff.c **** 	}
 650:source\fatfs/ff.c **** }
 651:source\fatfs/ff.c **** #endif
 652:source\fatfs/ff.c **** 
 653:source\fatfs/ff.c **** 
 654:source\fatfs/ff.c **** 
 655:source\fatfs/ff.c **** 
 656:source\fatfs/ff.c **** /*-----------------------------------------------------------------------*/
 657:source\fatfs/ff.c **** /* File lock control functions                                           */
 658:source\fatfs/ff.c **** /*-----------------------------------------------------------------------*/
 659:source\fatfs/ff.c **** #if _FS_LOCK
 660:source\fatfs/ff.c **** 
 661:source\fatfs/ff.c **** static
 662:source\fatfs/ff.c **** FRESULT chk_lock (	/* Check if the file can be accessed */
 663:source\fatfs/ff.c **** 	DIR* dp,		/* Directory object pointing the file to be checked */
 664:source\fatfs/ff.c **** 	int acc			/* Desired access type (0:Read, 1:Write, 2:Delete/Rename) */
 665:source\fatfs/ff.c **** )
 666:source\fatfs/ff.c **** {
 106              		.loc 1 666 1 is_stmt 1 view -0
 107              		.cfi_startproc
 108              		@ args = 0, pretend = 0, frame = 0
 109              		@ frame_needed = 0, uses_anonymous_args = 0
 667:source\fatfs/ff.c **** 	UINT i, be;
 110              		.loc 1 667 2 view .LVU21
 668:source\fatfs/ff.c **** 
 669:source\fatfs/ff.c **** 	/* Search file semaphore table */
 670:source\fatfs/ff.c **** 	for (i = be = 0; i < _FS_LOCK; i++) {
 111              		.loc 1 670 2 view .LVU22
 112              		.loc 1 670 19 view .LVU23
 671:source\fatfs/ff.c **** 		if (Files[i].fs) {	/* Existing entry */
 113              		.loc 1 671 3 view .LVU24
 114              		.loc 1 671 15 is_stmt 0 view .LVU25
 115 0000 1E4A     		ldr	r2, .L25
 116 0002 1368     		ldr	r3, [r2]
 666:source\fatfs/ff.c **** 	UINT i, be;
 117              		.loc 1 666 1 view .LVU26
 118 0004 30B5     		push	{r4, r5, lr}
 119              		.cfi_def_cfa_offset 12
 120              		.cfi_offset 4, -12
 121              		.cfi_offset 5, -8
 122              		.cfi_offset 14, -4
 123              		.loc 1 671 6 view .LVU27
 124 0006 7BB1     		cbz	r3, .L13
 672:source\fatfs/ff.c **** 			if (Files[i].fs == dp->fs &&	 	/* Check if the object matched with an open object */
 125              		.loc 1 672 4 is_stmt 1 view .LVU28
 126              		.loc 1 672 7 is_stmt 0 view .LVU29
 127 0008 D0F80042 		ldr	r4, [r0, #512]
 128 000c 9C42     		cmp	r4, r3
 129 000e 09D1     		bne	.L15
 130              		.loc 1 672 30 view .LVU30
 131 0010 5468     		ldr	r4, [r2, #4]
 132 0012 D0F80832 		ldr	r3, [r0, #520]
 133 0016 9C42     		cmp	r4, r3
 134 0018 04D1     		bne	.L15
 673:source\fatfs/ff.c **** 				Files[i].clu == dp->sclust &&
 135              		.loc 1 673 32 view .LVU31
 136 001a 1489     		ldrh	r4, [r2, #8]
 137 001c B0F80632 		ldrh	r3, [r0, #518]
 138 0020 9C42     		cmp	r4, r3
 139 0022 24D0     		beq	.L16
 140              	.L15:
 670:source\fatfs/ff.c **** 		if (Files[i].fs) {	/* Existing entry */
 141              		.loc 1 670 14 view .LVU32
 142 0024 0024     		movs	r4, #0
 143 0026 00E0     		b	.L8
 144              	.L13:
 674:source\fatfs/ff.c **** 				Files[i].idx == dp->index) break;
 675:source\fatfs/ff.c **** 		} else {			/* Blank entry */
 676:source\fatfs/ff.c **** 			be = 1;
 145              		.loc 1 676 7 view .LVU33
 146 0028 0124     		movs	r4, #1
 147              	.L8:
 148              	.LVL10:
 670:source\fatfs/ff.c **** 		if (Files[i].fs) {	/* Existing entry */
 149              		.loc 1 670 33 is_stmt 1 view .LVU34
 670:source\fatfs/ff.c **** 		if (Files[i].fs) {	/* Existing entry */
 150              		.loc 1 670 19 view .LVU35
 671:source\fatfs/ff.c **** 			if (Files[i].fs == dp->fs &&	 	/* Check if the object matched with an open object */
 151              		.loc 1 671 3 view .LVU36
 671:source\fatfs/ff.c **** 			if (Files[i].fs == dp->fs &&	 	/* Check if the object matched with an open object */
 152              		.loc 1 671 15 is_stmt 0 view .LVU37
 153 002a D368     		ldr	r3, [r2, #12]
 671:source\fatfs/ff.c **** 			if (Files[i].fs == dp->fs &&	 	/* Check if the object matched with an open object */
 154              		.loc 1 671 6 view .LVU38
 155 002c EBB1     		cbz	r3, .L19
 672:source\fatfs/ff.c **** 				Files[i].clu == dp->sclust &&
 156              		.loc 1 672 4 is_stmt 1 view .LVU39
 672:source\fatfs/ff.c **** 				Files[i].clu == dp->sclust &&
 157              		.loc 1 672 7 is_stmt 0 view .LVU40
 158 002e D0F80052 		ldr	r5, [r0, #512]
 159 0032 AB42     		cmp	r3, r5
 160 0034 09D1     		bne	.L11
 672:source\fatfs/ff.c **** 				Files[i].clu == dp->sclust &&
 161              		.loc 1 672 30 discriminator 1 view .LVU41
 162 0036 1569     		ldr	r5, [r2, #16]
 163 0038 D0F80832 		ldr	r3, [r0, #520]
 164 003c 9D42     		cmp	r5, r3
 165 003e 04D1     		bne	.L11
 673:source\fatfs/ff.c **** 				Files[i].idx == dp->index) break;
 166              		.loc 1 673 32 view .LVU42
 167 0040 958A     		ldrh	r5, [r2, #20]
 168 0042 B0F80632 		ldrh	r3, [r0, #518]
 169 0046 9D42     		cmp	r5, r3
 170 0048 16D0     		beq	.L18
 171              	.L11:
 670:source\fatfs/ff.c **** 		if (Files[i].fs) {	/* Existing entry */
 172              		.loc 1 670 33 is_stmt 1 discriminator 2 view .LVU43
 173              	.LVL11:
 670:source\fatfs/ff.c **** 		if (Files[i].fs) {	/* Existing entry */
 174              		.loc 1 670 19 discriminator 2 view .LVU44
 677:source\fatfs/ff.c **** 		}
 678:source\fatfs/ff.c **** 	}
 679:source\fatfs/ff.c **** 	if (i == _FS_LOCK)	/* The object is not opened */
 175              		.loc 1 679 2 discriminator 2 view .LVU45
 680:source\fatfs/ff.c **** 		return (be || acc == 2) ? FR_OK : FR_TOO_MANY_OPEN_FILES;	/* Is there a blank entry for new objec
 176              		.loc 1 680 3 discriminator 2 view .LVU46
 177              		.loc 1 680 35 is_stmt 0 discriminator 2 view .LVU47
 178 004a 74B9     		cbnz	r4, .L19
 179 004c 0229     		cmp	r1, #2
 180 004e 0CBF     		ite	eq
 181 0050 0020     		moveq	r0, #0
 182              	.LVL12:
 183              		.loc 1 680 35 discriminator 2 view .LVU48
 184 0052 1220     		movne	r0, #18
 185              	.LVL13:
 186              	.L23:
 681:source\fatfs/ff.c **** 
 682:source\fatfs/ff.c **** 	/* The object has been opened. Reject any open against writing file and all write mode open */
 683:source\fatfs/ff.c **** 	return (acc || Files[i].ctr == 0x100) ? FR_LOCKED : FR_OK;
 684:source\fatfs/ff.c **** }
 187              		.loc 1 684 1 view .LVU49
 188 0054 30BD     		pop	{r4, r5, pc}
 189              	.LVL14:
 190              	.L24:
 683:source\fatfs/ff.c **** }
 191              		.loc 1 683 25 discriminator 2 view .LVU50
 192 0056 0C21     		movs	r1, #12
 193              	.LVL15:
 683:source\fatfs/ff.c **** }
 194              		.loc 1 683 25 discriminator 2 view .LVU51
 195 0058 01FB0323 		mla	r3, r1, r3, r2
 683:source\fatfs/ff.c **** }
 196              		.loc 1 683 14 discriminator 2 view .LVU52
 197 005c 5B89     		ldrh	r3, [r3, #10]
 683:source\fatfs/ff.c **** }
 198              		.loc 1 683 52 discriminator 2 view .LVU53
 199 005e B3F5807F 		cmp	r3, #256
 200 0062 14BF     		ite	ne
 201 0064 0020     		movne	r0, #0
 202              	.LVL16:
 683:source\fatfs/ff.c **** }
 203              		.loc 1 683 52 discriminator 2 view .LVU54
 204 0066 1020     		moveq	r0, #16
 205 0068 F4E7     		b	.L23
 206              	.LVL17:
 207              	.L19:
 683:source\fatfs/ff.c **** }
 208              		.loc 1 683 52 view .LVU55
 209 006a 0020     		movs	r0, #0
 210              	.LVL18:
 683:source\fatfs/ff.c **** }
 211              		.loc 1 683 52 view .LVU56
 212 006c F2E7     		b	.L23
 213              	.LVL19:
 214              	.L16:
 670:source\fatfs/ff.c **** 		if (Files[i].fs) {	/* Existing entry */
 215              		.loc 1 670 9 view .LVU57
 216 006e 0023     		movs	r3, #0
 217              	.LVL20:
 218              	.L9:
 679:source\fatfs/ff.c **** 		return (be || acc == 2) ? FR_OK : FR_TOO_MANY_OPEN_FILES;	/* Is there a blank entry for new objec
 219              		.loc 1 679 2 is_stmt 1 view .LVU58
 683:source\fatfs/ff.c **** }
 220              		.loc 1 683 2 view .LVU59
 683:source\fatfs/ff.c **** }
 221              		.loc 1 683 52 is_stmt 0 view .LVU60
 222 0070 0029     		cmp	r1, #0
 223 0072 F0D0     		beq	.L24
 224 0074 1020     		movs	r0, #16
 225              	.LVL21:
 683:source\fatfs/ff.c **** }
 226              		.loc 1 683 52 view .LVU61
 227 0076 EDE7     		b	.L23
 228              	.LVL22:
 229              	.L18:
 670:source\fatfs/ff.c **** 		if (Files[i].fs) {	/* Existing entry */
 230              		.loc 1 670 34 view .LVU62
 231 0078 0123     		movs	r3, #1
 232 007a F9E7     		b	.L9
 233              	.L26:
 234              		.align	2
 235              	.L25:
 236 007c 00000000 		.word	.LANCHOR0
 237              		.cfi_endproc
 238              	.LFE134:
 240              		.section	.text.inc_lock,"ax",%progbits
 241              		.align	1
 242              		.syntax unified
 243              		.thumb
 244              		.thumb_func
 246              	inc_lock:
 247              	.LVL23:
 248              	.LFB136:
 685:source\fatfs/ff.c **** 
 686:source\fatfs/ff.c **** 
 687:source\fatfs/ff.c **** static
 688:source\fatfs/ff.c **** int enq_lock (void)	/* Check if an entry is available for a new object */
 689:source\fatfs/ff.c **** {
 690:source\fatfs/ff.c **** 	UINT i;
 691:source\fatfs/ff.c **** 
 692:source\fatfs/ff.c **** 	for (i = 0; i < _FS_LOCK && Files[i].fs; i++) ;
 693:source\fatfs/ff.c **** 	return (i == _FS_LOCK) ? 0 : 1;
 694:source\fatfs/ff.c **** }
 695:source\fatfs/ff.c **** 
 696:source\fatfs/ff.c **** 
 697:source\fatfs/ff.c **** static
 698:source\fatfs/ff.c **** UINT inc_lock (	/* Increment object open counter and returns its index (0:Internal error) */
 699:source\fatfs/ff.c **** 	DIR* dp,	/* Directory object pointing the file to register or increment */
 700:source\fatfs/ff.c **** 	int acc		/* Desired access (0:Read, 1:Write, 2:Delete/Rename) */
 701:source\fatfs/ff.c **** )
 702:source\fatfs/ff.c **** {
 249              		.loc 1 702 1 is_stmt 1 view -0
 250              		.cfi_startproc
 251              		@ args = 0, pretend = 0, frame = 0
 252              		@ frame_needed = 0, uses_anonymous_args = 0
 703:source\fatfs/ff.c **** 	UINT i;
 253              		.loc 1 703 2 view .LVU64
 704:source\fatfs/ff.c **** 
 705:source\fatfs/ff.c **** 
 706:source\fatfs/ff.c **** 	for (i = 0; i < _FS_LOCK; i++) {	/* Find the object */
 254              		.loc 1 706 2 view .LVU65
 255              		.loc 1 706 14 view .LVU66
 707:source\fatfs/ff.c **** 		if (Files[i].fs == dp->fs &&
 256              		.loc 1 707 15 is_stmt 0 view .LVU67
 257 0000 244A     		ldr	r2, .L44
 702:source\fatfs/ff.c **** 	UINT i;
 258              		.loc 1 702 1 view .LVU68
 259 0002 F0B5     		push	{r4, r5, r6, r7, lr}
 260              		.cfi_def_cfa_offset 20
 261              		.cfi_offset 4, -20
 262              		.cfi_offset 5, -16
 263              		.cfi_offset 6, -12
 264              		.cfi_offset 7, -8
 265              		.cfi_offset 14, -4
 266              		.loc 1 707 15 view .LVU69
 267 0004 1368     		ldr	r3, [r2]
 268              		.loc 1 707 24 view .LVU70
 269 0006 D0F80062 		ldr	r6, [r0, #512]
 270              		.loc 1 707 3 is_stmt 1 view .LVU71
 271              		.loc 1 707 6 is_stmt 0 view .LVU72
 272 000a 9E42     		cmp	r6, r3
 273 000c 09D1     		bne	.L28
 274              		.loc 1 707 29 view .LVU73
 275 000e 5568     		ldr	r5, [r2, #4]
 276 0010 D0F80842 		ldr	r4, [r0, #520]
 277 0014 A542     		cmp	r5, r4
 278 0016 04D1     		bne	.L28
 708:source\fatfs/ff.c **** 			Files[i].clu == dp->sclust &&
 279              		.loc 1 708 31 view .LVU74
 280 0018 B0F80652 		ldrh	r5, [r0, #518]
 281 001c 1489     		ldrh	r4, [r2, #8]
 282 001e A542     		cmp	r5, r4
 283 0020 28D0     		beq	.L35
 284              	.L28:
 706:source\fatfs/ff.c **** 		if (Files[i].fs == dp->fs &&
 285              		.loc 1 706 28 is_stmt 1 view .LVU75
 286              	.LVL24:
 706:source\fatfs/ff.c **** 		if (Files[i].fs == dp->fs &&
 287              		.loc 1 706 14 view .LVU76
 707:source\fatfs/ff.c **** 			Files[i].clu == dp->sclust &&
 288              		.loc 1 707 3 view .LVU77
 707:source\fatfs/ff.c **** 			Files[i].clu == dp->sclust &&
 289              		.loc 1 707 15 is_stmt 0 view .LVU78
 290 0022 D468     		ldr	r4, [r2, #12]
 707:source\fatfs/ff.c **** 			Files[i].clu == dp->sclust &&
 291              		.loc 1 707 6 view .LVU79
 292 0024 B442     		cmp	r4, r6
 293 0026 09D1     		bne	.L30
 707:source\fatfs/ff.c **** 			Files[i].clu == dp->sclust &&
 294              		.loc 1 707 29 discriminator 1 view .LVU80
 295 0028 1769     		ldr	r7, [r2, #16]
 296 002a D0F80852 		ldr	r5, [r0, #520]
 297 002e AF42     		cmp	r7, r5
 298 0030 04D1     		bne	.L30
 299              		.loc 1 708 31 view .LVU81
 300 0032 978A     		ldrh	r7, [r2, #20]
 301 0034 B0F80652 		ldrh	r5, [r0, #518]
 302 0038 AF42     		cmp	r7, r5
 303 003a 26D0     		beq	.L36
 304              	.L30:
 706:source\fatfs/ff.c **** 		if (Files[i].fs == dp->fs &&
 305              		.loc 1 706 28 is_stmt 1 discriminator 2 view .LVU82
 306              	.LVL25:
 706:source\fatfs/ff.c **** 		if (Files[i].fs == dp->fs &&
 307              		.loc 1 706 14 discriminator 2 view .LVU83
 709:source\fatfs/ff.c **** 			Files[i].idx == dp->index) break;
 710:source\fatfs/ff.c **** 	}
 711:source\fatfs/ff.c **** 
 712:source\fatfs/ff.c **** 	if (i == _FS_LOCK) {				/* Not opened. Register it as new. */
 308              		.loc 1 712 2 discriminator 2 view .LVU84
 713:source\fatfs/ff.c **** 		for (i = 0; i < _FS_LOCK && Files[i].fs; i++) ;
 309              		.loc 1 713 15 discriminator 2 view .LVU85
 310              		.loc 1 713 28 is_stmt 0 discriminator 2 view .LVU86
 311 003c 0BB1     		cbz	r3, .L31
 312              		.loc 1 713 49 is_stmt 1 view .LVU87
 313              		.loc 1 713 44 view .LVU88
 314              	.LVL26:
 315              		.loc 1 713 15 view .LVU89
 316              		.loc 1 713 28 is_stmt 0 view .LVU90
 317 003e 34BB     		cbnz	r4, .L40
 318              		.loc 1 713 45 view .LVU91
 319 0040 0123     		movs	r3, #1
 320              	.LVL27:
 321              	.L31:
 714:source\fatfs/ff.c **** 		if (i == _FS_LOCK) return 0;	/* No free entry to register (int err) */
 715:source\fatfs/ff.c **** 		Files[i].fs = dp->fs;
 322              		.loc 1 715 3 is_stmt 1 view .LVU92
 323              		.loc 1 715 15 is_stmt 0 view .LVU93
 324 0042 0C24     		movs	r4, #12
 325 0044 5C43     		muls	r4, r3, r4
 326 0046 1519     		adds	r5, r2, r4
 327 0048 1651     		str	r6, [r2, r4]
 716:source\fatfs/ff.c **** 		Files[i].clu = dp->sclust;
 328              		.loc 1 716 3 is_stmt 1 view .LVU94
 329              		.loc 1 716 16 is_stmt 0 view .LVU95
 330 004a D0F80842 		ldr	r4, [r0, #520]
 717:source\fatfs/ff.c **** 		Files[i].idx = dp->index;
 331              		.loc 1 717 16 view .LVU96
 332 004e B0F80602 		ldrh	r0, [r0, #518]
 333              	.LVL28:
 334              		.loc 1 717 16 view .LVU97
 335 0052 2881     		strh	r0, [r5, #8]	@ movhi
 718:source\fatfs/ff.c **** 		Files[i].ctr = 0;
 336              		.loc 1 718 16 view .LVU98
 337 0054 0020     		movs	r0, #0
 716:source\fatfs/ff.c **** 		Files[i].clu = dp->sclust;
 338              		.loc 1 716 16 view .LVU99
 339 0056 6C60     		str	r4, [r5, #4]
 717:source\fatfs/ff.c **** 		Files[i].idx = dp->index;
 340              		.loc 1 717 3 is_stmt 1 view .LVU100
 341              		.loc 1 718 3 view .LVU101
 342              		.loc 1 718 16 is_stmt 0 view .LVU102
 343 0058 6881     		strh	r0, [r5, #10]	@ movhi
 344              	.LVL29:
 719:source\fatfs/ff.c **** 	}
 720:source\fatfs/ff.c **** 
 721:source\fatfs/ff.c **** 	if (acc && Files[i].ctr) return 0;	/* Access violation (int err) */
 345              		.loc 1 721 2 is_stmt 1 view .LVU103
 346              		.loc 1 721 5 is_stmt 0 view .LVU104
 347 005a 99B9     		cbnz	r1, .L39
 348              	.L34:
 722:source\fatfs/ff.c **** 
 723:source\fatfs/ff.c **** 	Files[i].ctr = acc ? 0x100 : Files[i].ctr + 1;	/* Set semaphore value */
 349              		.loc 1 723 2 is_stmt 1 discriminator 1 view .LVU105
 350              		.loc 1 723 39 is_stmt 0 discriminator 1 view .LVU106
 351 005c 0C21     		movs	r1, #12
 352              	.LVL30:
 353              		.loc 1 723 39 discriminator 1 view .LVU107
 354 005e 01FB0321 		mla	r1, r1, r3, r2
 355              		.loc 1 723 15 discriminator 1 view .LVU108
 356 0062 4989     		ldrh	r1, [r1, #10]
 357 0064 0131     		adds	r1, r1, #1
 358 0066 89B2     		uxth	r1, r1
 359              	.L33:
 360              		.loc 1 723 15 discriminator 4 view .LVU109
 361 0068 0C20     		movs	r0, #12
 362 006a 00FB0322 		mla	r2, r0, r3, r2
 724:source\fatfs/ff.c **** 
 725:source\fatfs/ff.c **** 	return i + 1;
 363              		.loc 1 725 11 discriminator 4 view .LVU110
 364 006e 581C     		adds	r0, r3, #1
 723:source\fatfs/ff.c **** 
 365              		.loc 1 723 15 discriminator 4 view .LVU111
 366 0070 5181     		strh	r1, [r2, #10]	@ movhi
 367              		.loc 1 725 2 is_stmt 1 discriminator 4 view .LVU112
 368              	.LVL31:
 369              	.L27:
 726:source\fatfs/ff.c **** }
 370              		.loc 1 726 1 is_stmt 0 view .LVU113
 371 0072 F0BD     		pop	{r4, r5, r6, r7, pc}
 372              	.LVL32:
 373              	.L35:
 706:source\fatfs/ff.c **** 		if (Files[i].fs == dp->fs &&
 374              		.loc 1 706 9 view .LVU114
 375 0074 0023     		movs	r3, #0
 376              	.LVL33:
 377              	.L29:
 721:source\fatfs/ff.c **** 
 378              		.loc 1 721 2 is_stmt 1 view .LVU115
 721:source\fatfs/ff.c **** 
 379              		.loc 1 721 5 is_stmt 0 view .LVU116
 380 0076 0029     		cmp	r1, #0
 381 0078 F0D0     		beq	.L34
 721:source\fatfs/ff.c **** 
 382              		.loc 1 721 21 discriminator 1 view .LVU117
 383 007a 0C21     		movs	r1, #12
 384              	.LVL34:
 721:source\fatfs/ff.c **** 
 385              		.loc 1 721 21 discriminator 1 view .LVU118
 386 007c 01FB0321 		mla	r1, r1, r3, r2
 721:source\fatfs/ff.c **** 
 387              		.loc 1 721 10 discriminator 1 view .LVU119
 388 0080 4989     		ldrh	r1, [r1, #10]
 389 0082 21B9     		cbnz	r1, .L40
 390              	.LVL35:
 391              	.L39:
 723:source\fatfs/ff.c **** 
 392              		.loc 1 723 15 view .LVU120
 393 0084 4FF48071 		mov	r1, #256
 394 0088 EEE7     		b	.L33
 395              	.LVL36:
 396              	.L36:
 706:source\fatfs/ff.c **** 		if (Files[i].fs == dp->fs &&
 397              		.loc 1 706 29 view .LVU121
 398 008a 0123     		movs	r3, #1
 399 008c F3E7     		b	.L29
 400              	.LVL37:
 401              	.L40:
 714:source\fatfs/ff.c **** 		Files[i].fs = dp->fs;
 402              		.loc 1 714 29 view .LVU122
 403 008e 0020     		movs	r0, #0
 404              	.LVL38:
 714:source\fatfs/ff.c **** 		Files[i].fs = dp->fs;
 405              		.loc 1 714 29 view .LVU123
 406 0090 EFE7     		b	.L27
 407              	.L45:
 408 0092 00BF     		.align	2
 409              	.L44:
 410 0094 00000000 		.word	.LANCHOR0
 411              		.cfi_endproc
 412              	.LFE136:
 414              		.section	.text.dec_lock,"ax",%progbits
 415              		.align	1
 416              		.syntax unified
 417              		.thumb
 418              		.thumb_func
 420              	dec_lock:
 421              	.LVL39:
 422              	.LFB137:
 727:source\fatfs/ff.c **** 
 728:source\fatfs/ff.c **** 
 729:source\fatfs/ff.c **** static
 730:source\fatfs/ff.c **** FRESULT dec_lock (	/* Decrement object open counter */
 731:source\fatfs/ff.c **** 	UINT i			/* Semaphore index (1..) */
 732:source\fatfs/ff.c **** )
 733:source\fatfs/ff.c **** {
 423              		.loc 1 733 1 is_stmt 1 view -0
 424              		.cfi_startproc
 425              		@ args = 0, pretend = 0, frame = 0
 426              		@ frame_needed = 0, uses_anonymous_args = 0
 427              		@ link register save eliminated.
 734:source\fatfs/ff.c **** 	WORD n;
 428              		.loc 1 734 2 view .LVU125
 735:source\fatfs/ff.c **** 	FRESULT res;
 429              		.loc 1 735 2 view .LVU126
 736:source\fatfs/ff.c **** 
 737:source\fatfs/ff.c **** 
 738:source\fatfs/ff.c **** 	if (--i < _FS_LOCK) {	/* Shift index number origin from 0 */
 430              		.loc 1 738 2 view .LVU127
 431              		.loc 1 738 5 is_stmt 0 view .LVU128
 432 0000 0138     		subs	r0, r0, #1
 433              	.LVL40:
 434              		.loc 1 738 5 view .LVU129
 435 0002 0128     		cmp	r0, #1
 436 0004 17D8     		bhi	.L52
 739:source\fatfs/ff.c **** 		n = Files[i].ctr;
 437              		.loc 1 739 3 is_stmt 1 view .LVU130
 438              		.loc 1 739 5 is_stmt 0 view .LVU131
 439 0006 0D49     		ldr	r1, .L57
 440 0008 0C22     		movs	r2, #12
 441 000a 02FB0012 		mla	r2, r2, r0, r1
 442 000e 5389     		ldrh	r3, [r2, #10]
 443              	.LVL41:
 740:source\fatfs/ff.c **** 		if (n == 0x100) n = 0;		/* If write mode open, delete the entry */
 444              		.loc 1 740 3 is_stmt 1 view .LVU132
 445              		.loc 1 740 6 is_stmt 0 view .LVU133
 446 0010 B3F5807F 		cmp	r3, #256
 447 0014 06D1     		bne	.L48
 448              	.LVL42:
 741:source\fatfs/ff.c **** 		if (n) n--;					/* Decrement read mode open count */
 742:source\fatfs/ff.c **** 		Files[i].ctr = n;
 449              		.loc 1 742 3 is_stmt 1 view .LVU134
 450              		.loc 1 742 16 is_stmt 0 view .LVU135
 451 0016 0023     		movs	r3, #0
 452 0018 5381     		strh	r3, [r2, #10]	@ movhi
 743:source\fatfs/ff.c **** 		if (!n) Files[i].fs = 0;	/* Delete the entry if open count gets zero */
 453              		.loc 1 743 3 is_stmt 1 view .LVU136
 454              	.LVL43:
 455              	.L49:
 456              		.loc 1 743 11 discriminator 1 view .LVU137
 457              		.loc 1 743 23 is_stmt 0 discriminator 1 view .LVU138
 458 001a 0C23     		movs	r3, #12
 459 001c 5843     		muls	r0, r3, r0
 460              	.LVL44:
 461              		.loc 1 743 23 discriminator 1 view .LVU139
 462 001e 0023     		movs	r3, #0
 463 0020 0B50     		str	r3, [r1, r0]
 464 0022 06E0     		b	.L56
 465              	.LVL45:
 466              	.L48:
 741:source\fatfs/ff.c **** 		if (n) n--;					/* Decrement read mode open count */
 467              		.loc 1 741 3 is_stmt 1 view .LVU140
 741:source\fatfs/ff.c **** 		if (n) n--;					/* Decrement read mode open count */
 468              		.loc 1 741 6 is_stmt 0 view .LVU141
 469 0024 002B     		cmp	r3, #0
 470 0026 F8D0     		beq	.L49
 741:source\fatfs/ff.c **** 		if (n) n--;					/* Decrement read mode open count */
 471              		.loc 1 741 10 is_stmt 1 discriminator 1 view .LVU142
 741:source\fatfs/ff.c **** 		if (n) n--;					/* Decrement read mode open count */
 472              		.loc 1 741 11 is_stmt 0 discriminator 1 view .LVU143
 473 0028 013B     		subs	r3, r3, #1
 474              	.LVL46:
 741:source\fatfs/ff.c **** 		if (n) n--;					/* Decrement read mode open count */
 475              		.loc 1 741 11 discriminator 1 view .LVU144
 476 002a 9BB2     		uxth	r3, r3
 477              	.LVL47:
 742:source\fatfs/ff.c **** 		if (!n) Files[i].fs = 0;	/* Delete the entry if open count gets zero */
 478              		.loc 1 742 3 is_stmt 1 discriminator 1 view .LVU145
 742:source\fatfs/ff.c **** 		if (!n) Files[i].fs = 0;	/* Delete the entry if open count gets zero */
 479              		.loc 1 742 16 is_stmt 0 discriminator 1 view .LVU146
 480 002c 5381     		strh	r3, [r2, #10]	@ movhi
 481              		.loc 1 743 3 is_stmt 1 discriminator 1 view .LVU147
 482              		.loc 1 743 6 is_stmt 0 discriminator 1 view .LVU148
 483 002e 002B     		cmp	r3, #0
 484 0030 F3D0     		beq	.L49
 485              	.LVL48:
 486              	.L56:
 744:source\fatfs/ff.c **** 		res = FR_OK;
 487              		.loc 1 744 7 view .LVU149
 488 0032 0020     		movs	r0, #0
 489 0034 7047     		bx	lr
 490              	.LVL49:
 491              	.L52:
 745:source\fatfs/ff.c **** 	} else {
 746:source\fatfs/ff.c **** 		res = FR_INT_ERR;			/* Invalid index nunber */
 492              		.loc 1 746 7 view .LVU150
 493 0036 0220     		movs	r0, #2
 494              	.LVL50:
 747:source\fatfs/ff.c **** 	}
 748:source\fatfs/ff.c **** 	return res;
 495              		.loc 1 748 2 is_stmt 1 view .LVU151
 749:source\fatfs/ff.c **** }
 496              		.loc 1 749 1 is_stmt 0 view .LVU152
 497 0038 7047     		bx	lr
 498              	.L58:
 499 003a 00BF     		.align	2
 500              	.L57:
 501 003c 00000000 		.word	.LANCHOR0
 502              		.cfi_endproc
 503              	.LFE137:
 505              		.section	.text.clear_lock,"ax",%progbits
 506              		.align	1
 507              		.syntax unified
 508              		.thumb
 509              		.thumb_func
 511              	clear_lock:
 512              	.LVL51:
 513              	.LFB138:
 750:source\fatfs/ff.c **** 
 751:source\fatfs/ff.c **** 
 752:source\fatfs/ff.c **** static
 753:source\fatfs/ff.c **** void clear_lock (	/* Clear lock entries of the volume */
 754:source\fatfs/ff.c **** 	FATFS *fs
 755:source\fatfs/ff.c **** )
 756:source\fatfs/ff.c **** {
 514              		.loc 1 756 1 is_stmt 1 view -0
 515              		.cfi_startproc
 516              		@ args = 0, pretend = 0, frame = 0
 517              		@ frame_needed = 0, uses_anonymous_args = 0
 518              		@ link register save eliminated.
 757:source\fatfs/ff.c **** 	UINT i;
 519              		.loc 1 757 2 view .LVU154
 758:source\fatfs/ff.c **** 
 759:source\fatfs/ff.c **** 	for (i = 0; i < _FS_LOCK; i++) {
 520              		.loc 1 759 2 view .LVU155
 521              		.loc 1 759 14 view .LVU156
 760:source\fatfs/ff.c **** 		if (Files[i].fs == fs) Files[i].fs = 0;
 522              		.loc 1 760 3 view .LVU157
 523              		.loc 1 760 15 is_stmt 0 view .LVU158
 524 0000 054B     		ldr	r3, .L62
 525              		.loc 1 760 6 view .LVU159
 526 0002 1A68     		ldr	r2, [r3]
 527 0004 9042     		cmp	r0, r2
 528              		.loc 1 760 26 is_stmt 1 view .LVU160
 529              		.loc 1 760 38 is_stmt 0 view .LVU161
 530 0006 04BF     		itt	eq
 531 0008 0022     		moveq	r2, #0
 532 000a 1A60     		streq	r2, [r3]
 759:source\fatfs/ff.c **** 		if (Files[i].fs == fs) Files[i].fs = 0;
 533              		.loc 1 759 28 is_stmt 1 view .LVU162
 534              	.LVL52:
 759:source\fatfs/ff.c **** 		if (Files[i].fs == fs) Files[i].fs = 0;
 535              		.loc 1 759 14 view .LVU163
 536              		.loc 1 760 3 view .LVU164
 537              		.loc 1 760 6 is_stmt 0 view .LVU165
 538 000c DA68     		ldr	r2, [r3, #12]
 539 000e 9042     		cmp	r0, r2
 540              		.loc 1 760 26 is_stmt 1 view .LVU166
 541              		.loc 1 760 38 is_stmt 0 view .LVU167
 542 0010 04BF     		itt	eq
 543 0012 0022     		moveq	r2, #0
 544 0014 DA60     		streq	r2, [r3, #12]
 759:source\fatfs/ff.c **** 		if (Files[i].fs == fs) Files[i].fs = 0;
 545              		.loc 1 759 28 is_stmt 1 view .LVU168
 546              	.LVL53:
 759:source\fatfs/ff.c **** 		if (Files[i].fs == fs) Files[i].fs = 0;
 547              		.loc 1 759 14 view .LVU169
 761:source\fatfs/ff.c **** 	}
 762:source\fatfs/ff.c **** }
 548              		.loc 1 762 1 is_stmt 0 view .LVU170
 549 0016 7047     		bx	lr
 550              	.L63:
 551              		.align	2
 552              	.L62:
 553 0018 00000000 		.word	.LANCHOR0
 554              		.cfi_endproc
 555              	.LFE138:
 557              		.section	.text.clmt_clust,"ax",%progbits
 558              		.align	1
 559              		.syntax unified
 560              		.thumb
 561              		.thumb_func
 563              	clmt_clust:
 564              	.LVL54:
 565              	.LFB147:
 763:source\fatfs/ff.c **** #endif
 764:source\fatfs/ff.c **** 
 765:source\fatfs/ff.c **** 
 766:source\fatfs/ff.c **** 
 767:source\fatfs/ff.c **** 
 768:source\fatfs/ff.c **** /*-----------------------------------------------------------------------*/
 769:source\fatfs/ff.c **** /* Move/Flush disk access window in the file system object               */
 770:source\fatfs/ff.c **** /*-----------------------------------------------------------------------*/
 771:source\fatfs/ff.c **** #if !_FS_READONLY
 772:source\fatfs/ff.c **** static
 773:source\fatfs/ff.c **** FRESULT sync_window (
 774:source\fatfs/ff.c **** 	FATFS* fs		/* File system object */
 775:source\fatfs/ff.c **** )
 776:source\fatfs/ff.c **** {
 777:source\fatfs/ff.c **** 	DWORD wsect;
 778:source\fatfs/ff.c **** 	UINT nf;
 779:source\fatfs/ff.c **** 	FRESULT res = FR_OK;
 780:source\fatfs/ff.c **** 
 781:source\fatfs/ff.c **** 
 782:source\fatfs/ff.c **** 	if (fs->wflag) {	/* Write back the sector if it is dirty */
 783:source\fatfs/ff.c **** 		wsect = fs->winsect;	/* Current sector number */
 784:source\fatfs/ff.c **** 		if (disk_write(fs->drv, fs->win.d8, wsect, 1) != RES_OK) {
 785:source\fatfs/ff.c **** 			res = FR_DISK_ERR;
 786:source\fatfs/ff.c **** 		} else {
 787:source\fatfs/ff.c **** 			fs->wflag = 0;
 788:source\fatfs/ff.c **** 			if (wsect - fs->fatbase < fs->fsize) {		/* Is it in the FAT area? */
 789:source\fatfs/ff.c **** 				for (nf = fs->n_fats; nf >= 2; nf--) {	/* Reflect the change to all FAT copies */
 790:source\fatfs/ff.c **** 					wsect += fs->fsize;
 791:source\fatfs/ff.c **** 					disk_write(fs->drv, fs->win.d8, wsect, 1);
 792:source\fatfs/ff.c **** 				}
 793:source\fatfs/ff.c **** 			}
 794:source\fatfs/ff.c **** 		}
 795:source\fatfs/ff.c **** 	}
 796:source\fatfs/ff.c **** 	return res;
 797:source\fatfs/ff.c **** }
 798:source\fatfs/ff.c **** #endif
 799:source\fatfs/ff.c **** 
 800:source\fatfs/ff.c **** 
 801:source\fatfs/ff.c **** static
 802:source\fatfs/ff.c **** FRESULT move_window (
 803:source\fatfs/ff.c **** 	FATFS* fs,		/* File system object */
 804:source\fatfs/ff.c **** 	DWORD sector	/* Sector number to make appearance in the fs->win[].d8 */
 805:source\fatfs/ff.c **** )
 806:source\fatfs/ff.c **** {
 807:source\fatfs/ff.c **** 	FRESULT res = FR_OK;
 808:source\fatfs/ff.c **** 
 809:source\fatfs/ff.c **** 
 810:source\fatfs/ff.c **** 	if (sector != fs->winsect) {	/* Window offset changed? */
 811:source\fatfs/ff.c **** #if !_FS_READONLY
 812:source\fatfs/ff.c **** 		res = sync_window(fs);		/* Write-back changes */
 813:source\fatfs/ff.c **** #endif
 814:source\fatfs/ff.c **** 		if (res == FR_OK) {			/* Fill sector window with new data */
 815:source\fatfs/ff.c **** 			if (disk_read(fs->drv, fs->win.d8, sector, 1) != RES_OK) {
 816:source\fatfs/ff.c **** 				sector = 0xFFFFFFFF;	/* Invalidate window if data is not reliable */
 817:source\fatfs/ff.c **** 				res = FR_DISK_ERR;
 818:source\fatfs/ff.c **** 			}
 819:source\fatfs/ff.c **** 			fs->winsect = sector;
 820:source\fatfs/ff.c **** 		}
 821:source\fatfs/ff.c **** 	}
 822:source\fatfs/ff.c **** 	return res;
 823:source\fatfs/ff.c **** }
 824:source\fatfs/ff.c **** 
 825:source\fatfs/ff.c **** 
 826:source\fatfs/ff.c **** 
 827:source\fatfs/ff.c **** 
 828:source\fatfs/ff.c **** /*-----------------------------------------------------------------------*/
 829:source\fatfs/ff.c **** /* Synchronize file system and strage device                             */
 830:source\fatfs/ff.c **** /*-----------------------------------------------------------------------*/
 831:source\fatfs/ff.c **** #if !_FS_READONLY
 832:source\fatfs/ff.c **** static
 833:source\fatfs/ff.c **** FRESULT sync_fs (	/* FR_OK: successful, FR_DISK_ERR: failed */
 834:source\fatfs/ff.c **** 	FATFS* fs		/* File system object */
 835:source\fatfs/ff.c **** )
 836:source\fatfs/ff.c **** {
 837:source\fatfs/ff.c **** 	FRESULT res;
 838:source\fatfs/ff.c **** 
 839:source\fatfs/ff.c **** 
 840:source\fatfs/ff.c **** 	res = sync_window(fs);
 841:source\fatfs/ff.c **** 	if (res == FR_OK) {
 842:source\fatfs/ff.c **** 		/* Update FSINFO sector if needed */
 843:source\fatfs/ff.c **** 		if (fs->fs_type == FS_FAT32 && fs->fsi_flag == 1) {
 844:source\fatfs/ff.c **** 			/* Create FSINFO structure */
 845:source\fatfs/ff.c **** 			mem_set(fs->win.d8, 0, SS(fs));
 846:source\fatfs/ff.c **** 			ST_WORD(fs->win.d8 + BS_55AA, 0xAA55);
 847:source\fatfs/ff.c **** 			ST_DWORD(fs->win.d8 + FSI_LeadSig, 0x41615252);
 848:source\fatfs/ff.c **** 			ST_DWORD(fs->win.d8 + FSI_StrucSig, 0x61417272);
 849:source\fatfs/ff.c **** 			ST_DWORD(fs->win.d8 + FSI_Free_Count, fs->free_clust);
 850:source\fatfs/ff.c **** 			ST_DWORD(fs->win.d8 + FSI_Nxt_Free, fs->last_clust);
 851:source\fatfs/ff.c **** 			/* Write it into the FSINFO sector */
 852:source\fatfs/ff.c **** 			fs->winsect = fs->volbase + 1;
 853:source\fatfs/ff.c **** 			disk_write(fs->drv, fs->win.d8, fs->winsect, 1);
 854:source\fatfs/ff.c **** 			fs->fsi_flag = 0;
 855:source\fatfs/ff.c **** 		}
 856:source\fatfs/ff.c **** 		/* Make sure that no pending write process in the physical drive */
 857:source\fatfs/ff.c **** 		if (disk_ioctl(fs->drv, CTRL_SYNC, 0) != RES_OK)
 858:source\fatfs/ff.c **** 			res = FR_DISK_ERR;
 859:source\fatfs/ff.c **** 	}
 860:source\fatfs/ff.c **** 
 861:source\fatfs/ff.c **** 	return res;
 862:source\fatfs/ff.c **** }
 863:source\fatfs/ff.c **** #endif
 864:source\fatfs/ff.c **** 
 865:source\fatfs/ff.c **** 
 866:source\fatfs/ff.c **** 
 867:source\fatfs/ff.c **** 
 868:source\fatfs/ff.c **** /*-----------------------------------------------------------------------*/
 869:source\fatfs/ff.c **** /* Get sector# from cluster#                                             */
 870:source\fatfs/ff.c **** /*-----------------------------------------------------------------------*/
 871:source\fatfs/ff.c **** /* Hidden API for hacks and disk tools */
 872:source\fatfs/ff.c **** 
 873:source\fatfs/ff.c **** DWORD clust2sect (	/* !=0: Sector number, 0: Failed - invalid cluster# */
 874:source\fatfs/ff.c **** 	FATFS* fs,		/* File system object */
 875:source\fatfs/ff.c **** 	DWORD clst		/* Cluster# to be converted */
 876:source\fatfs/ff.c **** )
 877:source\fatfs/ff.c **** {
 878:source\fatfs/ff.c **** 	clst -= 2;
 879:source\fatfs/ff.c **** 	if (clst >= fs->n_fatent - 2) return 0;		/* Invalid cluster# */
 880:source\fatfs/ff.c **** 	return clst * fs->csize + fs->database;
 881:source\fatfs/ff.c **** }
 882:source\fatfs/ff.c **** 
 883:source\fatfs/ff.c **** 
 884:source\fatfs/ff.c **** 
 885:source\fatfs/ff.c **** 
 886:source\fatfs/ff.c **** /*-----------------------------------------------------------------------*/
 887:source\fatfs/ff.c **** /* FAT access - Read value of a FAT entry                                */
 888:source\fatfs/ff.c **** /*-----------------------------------------------------------------------*/
 889:source\fatfs/ff.c **** /* Hidden API for hacks and disk tools */
 890:source\fatfs/ff.c **** 
 891:source\fatfs/ff.c **** DWORD get_fat (	/* 0xFFFFFFFF:Disk error, 1:Internal error, 2..0x0FFFFFFF:Cluster status */
 892:source\fatfs/ff.c **** 	FATFS* fs,	/* File system object */
 893:source\fatfs/ff.c **** 	DWORD clst	/* FAT index number (cluster number) to get the value */
 894:source\fatfs/ff.c **** )
 895:source\fatfs/ff.c **** {
 896:source\fatfs/ff.c **** 	UINT wc, bc;
 897:source\fatfs/ff.c **** 	BYTE *p;
 898:source\fatfs/ff.c **** 	DWORD val;
 899:source\fatfs/ff.c **** 
 900:source\fatfs/ff.c **** 
 901:source\fatfs/ff.c **** 	if (clst < 2 || clst >= fs->n_fatent) {	/* Check range */
 902:source\fatfs/ff.c **** 		val = 1;	/* Internal error */
 903:source\fatfs/ff.c **** 
 904:source\fatfs/ff.c **** 	} else {
 905:source\fatfs/ff.c **** 		val = 0xFFFFFFFF;	/* Default value falls on disk error */
 906:source\fatfs/ff.c **** 
 907:source\fatfs/ff.c **** 		switch (fs->fs_type) {
 908:source\fatfs/ff.c **** 		case FS_FAT12 :
 909:source\fatfs/ff.c **** 			bc = (UINT)clst; bc += bc / 2;
 910:source\fatfs/ff.c **** 			if (move_window(fs, fs->fatbase + (bc / SS(fs))) != FR_OK) break;
 911:source\fatfs/ff.c **** 			wc = fs->win.d8[bc++ % SS(fs)];
 912:source\fatfs/ff.c **** 			if (move_window(fs, fs->fatbase + (bc / SS(fs))) != FR_OK) break;
 913:source\fatfs/ff.c **** 			wc |= fs->win.d8[bc % SS(fs)] << 8;
 914:source\fatfs/ff.c **** 			val = clst & 1 ? wc >> 4 : (wc & 0xFFF);
 915:source\fatfs/ff.c **** 			break;
 916:source\fatfs/ff.c **** 
 917:source\fatfs/ff.c **** 		case FS_FAT16 :
 918:source\fatfs/ff.c **** 			if (move_window(fs, fs->fatbase + (clst / (SS(fs) / 2))) != FR_OK) break;
 919:source\fatfs/ff.c **** 			p = &fs->win.d8[clst * 2 % SS(fs)];
 920:source\fatfs/ff.c **** 			val = LD_WORD(p);
 921:source\fatfs/ff.c **** 			break;
 922:source\fatfs/ff.c **** 
 923:source\fatfs/ff.c **** 		case FS_FAT32 :
 924:source\fatfs/ff.c **** 			if (move_window(fs, fs->fatbase + (clst / (SS(fs) / 4))) != FR_OK) break;
 925:source\fatfs/ff.c **** 			p = &fs->win.d8[clst * 4 % SS(fs)];
 926:source\fatfs/ff.c **** 			val = LD_DWORD(p) & 0x0FFFFFFF;
 927:source\fatfs/ff.c **** 			break;
 928:source\fatfs/ff.c **** 
 929:source\fatfs/ff.c **** 		default:
 930:source\fatfs/ff.c **** 			val = 1;	/* Internal error */
 931:source\fatfs/ff.c **** 		}
 932:source\fatfs/ff.c **** 	}
 933:source\fatfs/ff.c **** 
 934:source\fatfs/ff.c **** 	return val;
 935:source\fatfs/ff.c **** }
 936:source\fatfs/ff.c **** 
 937:source\fatfs/ff.c **** 
 938:source\fatfs/ff.c **** 
 939:source\fatfs/ff.c **** 
 940:source\fatfs/ff.c **** /*-----------------------------------------------------------------------*/
 941:source\fatfs/ff.c **** /* FAT access - Change value of a FAT entry                              */
 942:source\fatfs/ff.c **** /*-----------------------------------------------------------------------*/
 943:source\fatfs/ff.c **** /* Hidden API for hacks and disk tools */
 944:source\fatfs/ff.c **** 
 945:source\fatfs/ff.c **** #if !_FS_READONLY
 946:source\fatfs/ff.c **** FRESULT put_fat (
 947:source\fatfs/ff.c **** 	FATFS* fs,	/* File system object */
 948:source\fatfs/ff.c **** 	DWORD clst,	/* FAT index number (cluster number) to be changed */
 949:source\fatfs/ff.c **** 	DWORD val	/* New value to be set to the entry */
 950:source\fatfs/ff.c **** )
 951:source\fatfs/ff.c **** {
 952:source\fatfs/ff.c **** 	UINT bc;
 953:source\fatfs/ff.c **** 	BYTE *p;
 954:source\fatfs/ff.c **** 	FRESULT res;
 955:source\fatfs/ff.c **** 
 956:source\fatfs/ff.c **** 
 957:source\fatfs/ff.c **** 	if (clst < 2 || clst >= fs->n_fatent) {	/* Check range */
 958:source\fatfs/ff.c **** 		res = FR_INT_ERR;
 959:source\fatfs/ff.c **** 
 960:source\fatfs/ff.c **** 	} else {
 961:source\fatfs/ff.c **** 		switch (fs->fs_type) {
 962:source\fatfs/ff.c **** 		case FS_FAT12 :
 963:source\fatfs/ff.c **** 			bc = (UINT)clst; bc += bc / 2;
 964:source\fatfs/ff.c **** 			res = move_window(fs, fs->fatbase + (bc / SS(fs)));
 965:source\fatfs/ff.c **** 			if (res != FR_OK) break;
 966:source\fatfs/ff.c **** 			p = &fs->win.d8[bc++ % SS(fs)];
 967:source\fatfs/ff.c **** 			*p = (clst & 1) ? ((*p & 0x0F) | ((BYTE)val << 4)) : (BYTE)val;
 968:source\fatfs/ff.c **** 			fs->wflag = 1;
 969:source\fatfs/ff.c **** 			res = move_window(fs, fs->fatbase + (bc / SS(fs)));
 970:source\fatfs/ff.c **** 			if (res != FR_OK) break;
 971:source\fatfs/ff.c **** 			p = &fs->win.d8[bc % SS(fs)];
 972:source\fatfs/ff.c **** 			*p = (clst & 1) ? (BYTE)(val >> 4) : ((*p & 0xF0) | ((BYTE)(val >> 8) & 0x0F));
 973:source\fatfs/ff.c **** 			fs->wflag = 1;
 974:source\fatfs/ff.c **** 			break;
 975:source\fatfs/ff.c **** 
 976:source\fatfs/ff.c **** 		case FS_FAT16 :
 977:source\fatfs/ff.c **** 			res = move_window(fs, fs->fatbase + (clst / (SS(fs) / 2)));
 978:source\fatfs/ff.c **** 			if (res != FR_OK) break;
 979:source\fatfs/ff.c **** 			p = &fs->win.d8[clst * 2 % SS(fs)];
 980:source\fatfs/ff.c **** 			ST_WORD(p, (WORD)val);
 981:source\fatfs/ff.c **** 			fs->wflag = 1;
 982:source\fatfs/ff.c **** 			break;
 983:source\fatfs/ff.c **** 
 984:source\fatfs/ff.c **** 		case FS_FAT32 :
 985:source\fatfs/ff.c **** 			res = move_window(fs, fs->fatbase + (clst / (SS(fs) / 4)));
 986:source\fatfs/ff.c **** 			if (res != FR_OK) break;
 987:source\fatfs/ff.c **** 			p = &fs->win.d8[clst * 4 % SS(fs)];
 988:source\fatfs/ff.c **** 			val |= LD_DWORD(p) & 0xF0000000;
 989:source\fatfs/ff.c **** 			ST_DWORD(p, val);
 990:source\fatfs/ff.c **** 			fs->wflag = 1;
 991:source\fatfs/ff.c **** 			break;
 992:source\fatfs/ff.c **** 
 993:source\fatfs/ff.c **** 		default :
 994:source\fatfs/ff.c **** 			res = FR_INT_ERR;
 995:source\fatfs/ff.c **** 		}
 996:source\fatfs/ff.c **** 	}
 997:source\fatfs/ff.c **** 
 998:source\fatfs/ff.c **** 	return res;
 999:source\fatfs/ff.c **** }
1000:source\fatfs/ff.c **** #endif /* !_FS_READONLY */
1001:source\fatfs/ff.c **** 
1002:source\fatfs/ff.c **** 
1003:source\fatfs/ff.c **** 
1004:source\fatfs/ff.c **** 
1005:source\fatfs/ff.c **** /*-----------------------------------------------------------------------*/
1006:source\fatfs/ff.c **** /* FAT handling - Remove a cluster chain                                 */
1007:source\fatfs/ff.c **** /*-----------------------------------------------------------------------*/
1008:source\fatfs/ff.c **** #if !_FS_READONLY
1009:source\fatfs/ff.c **** static
1010:source\fatfs/ff.c **** FRESULT remove_chain (
1011:source\fatfs/ff.c **** 	FATFS* fs,			/* File system object */
1012:source\fatfs/ff.c **** 	DWORD clst			/* Cluster# to remove a chain from */
1013:source\fatfs/ff.c **** )
1014:source\fatfs/ff.c **** {
1015:source\fatfs/ff.c **** 	FRESULT res;
1016:source\fatfs/ff.c **** 	DWORD nxt;
1017:source\fatfs/ff.c **** #if _USE_TRIM
1018:source\fatfs/ff.c **** 	DWORD scl = clst, ecl = clst, rt[2];
1019:source\fatfs/ff.c **** #endif
1020:source\fatfs/ff.c **** 
1021:source\fatfs/ff.c **** 	if (clst < 2 || clst >= fs->n_fatent) {	/* Check range */
1022:source\fatfs/ff.c **** 		res = FR_INT_ERR;
1023:source\fatfs/ff.c **** 
1024:source\fatfs/ff.c **** 	} else {
1025:source\fatfs/ff.c **** 		res = FR_OK;
1026:source\fatfs/ff.c **** 		while (clst < fs->n_fatent) {			/* Not a last link? */
1027:source\fatfs/ff.c **** 			nxt = get_fat(fs, clst);			/* Get cluster status */
1028:source\fatfs/ff.c **** 			if (nxt == 0) break;				/* Empty cluster? */
1029:source\fatfs/ff.c **** 			if (nxt == 1) { res = FR_INT_ERR; break; }	/* Internal error? */
1030:source\fatfs/ff.c **** 			if (nxt == 0xFFFFFFFF) { res = FR_DISK_ERR; break; }	/* Disk error? */
1031:source\fatfs/ff.c **** 			res = put_fat(fs, clst, 0);			/* Mark the cluster "empty" */
1032:source\fatfs/ff.c **** 			if (res != FR_OK) break;
1033:source\fatfs/ff.c **** 			if (fs->free_clust != 0xFFFFFFFF) {	/* Update FSINFO */
1034:source\fatfs/ff.c **** 				fs->free_clust++;
1035:source\fatfs/ff.c **** 				fs->fsi_flag |= 1;
1036:source\fatfs/ff.c **** 			}
1037:source\fatfs/ff.c **** #if _USE_TRIM
1038:source\fatfs/ff.c **** 			if (ecl + 1 == nxt) {	/* Is next cluster contiguous? */
1039:source\fatfs/ff.c **** 				ecl = nxt;
1040:source\fatfs/ff.c **** 			} else {				/* End of contiguous clusters */ 
1041:source\fatfs/ff.c **** 				rt[0] = clust2sect(fs, scl);					/* Start sector */
1042:source\fatfs/ff.c **** 				rt[1] = clust2sect(fs, ecl) + fs->csize - 1;	/* End sector */
1043:source\fatfs/ff.c **** 				disk_ioctl(fs->drv, CTRL_TRIM, rt);				/* Erase the block */
1044:source\fatfs/ff.c **** 				scl = ecl = nxt;
1045:source\fatfs/ff.c **** 			}
1046:source\fatfs/ff.c **** #endif
1047:source\fatfs/ff.c **** 			clst = nxt;	/* Next cluster */
1048:source\fatfs/ff.c **** 		}
1049:source\fatfs/ff.c **** 	}
1050:source\fatfs/ff.c **** 
1051:source\fatfs/ff.c **** 	return res;
1052:source\fatfs/ff.c **** }
1053:source\fatfs/ff.c **** #endif
1054:source\fatfs/ff.c **** 
1055:source\fatfs/ff.c **** 
1056:source\fatfs/ff.c **** 
1057:source\fatfs/ff.c **** 
1058:source\fatfs/ff.c **** /*-----------------------------------------------------------------------*/
1059:source\fatfs/ff.c **** /* FAT handling - Stretch or Create a cluster chain                      */
1060:source\fatfs/ff.c **** /*-----------------------------------------------------------------------*/
1061:source\fatfs/ff.c **** #if !_FS_READONLY
1062:source\fatfs/ff.c **** static
1063:source\fatfs/ff.c **** DWORD create_chain (	/* 0:No free cluster, 1:Internal error, 0xFFFFFFFF:Disk error, >=2:New cluster
1064:source\fatfs/ff.c **** 	FATFS* fs,			/* File system object */
1065:source\fatfs/ff.c **** 	DWORD clst			/* Cluster# to stretch. 0 means create a new chain. */
1066:source\fatfs/ff.c **** )
1067:source\fatfs/ff.c **** {
1068:source\fatfs/ff.c **** 	DWORD cs, ncl, scl;
1069:source\fatfs/ff.c **** 	FRESULT res;
1070:source\fatfs/ff.c **** 
1071:source\fatfs/ff.c **** 
1072:source\fatfs/ff.c **** 	if (clst == 0) {		/* Create a new chain */
1073:source\fatfs/ff.c **** 		scl = fs->last_clust;			/* Get suggested start point */
1074:source\fatfs/ff.c **** 		if (!scl || scl >= fs->n_fatent) scl = 1;
1075:source\fatfs/ff.c **** 	}
1076:source\fatfs/ff.c **** 	else {					/* Stretch the current chain */
1077:source\fatfs/ff.c **** 		cs = get_fat(fs, clst);			/* Check the cluster status */
1078:source\fatfs/ff.c **** 		if (cs < 2) return 1;			/* Invalid value */
1079:source\fatfs/ff.c **** 		if (cs == 0xFFFFFFFF) return cs;	/* A disk error occurred */
1080:source\fatfs/ff.c **** 		if (cs < fs->n_fatent) return cs;	/* It is already followed by next cluster */
1081:source\fatfs/ff.c **** 		scl = clst;
1082:source\fatfs/ff.c **** 	}
1083:source\fatfs/ff.c **** 
1084:source\fatfs/ff.c **** 	ncl = scl;				/* Start cluster */
1085:source\fatfs/ff.c **** 	for (;;) {
1086:source\fatfs/ff.c **** 		ncl++;							/* Next cluster */
1087:source\fatfs/ff.c **** 		if (ncl >= fs->n_fatent) {		/* Check wrap around */
1088:source\fatfs/ff.c **** 			ncl = 2;
1089:source\fatfs/ff.c **** 			if (ncl > scl) return 0;	/* No free cluster */
1090:source\fatfs/ff.c **** 		}
1091:source\fatfs/ff.c **** 		cs = get_fat(fs, ncl);			/* Get the cluster status */
1092:source\fatfs/ff.c **** 		if (cs == 0) break;				/* Found a free cluster */
1093:source\fatfs/ff.c **** 		if (cs == 0xFFFFFFFF || cs == 1)/* An error occurred */
1094:source\fatfs/ff.c **** 			return cs;
1095:source\fatfs/ff.c **** 		if (ncl == scl) return 0;		/* No free cluster */
1096:source\fatfs/ff.c **** 	}
1097:source\fatfs/ff.c **** 
1098:source\fatfs/ff.c **** 	res = put_fat(fs, ncl, 0x0FFFFFFF);	/* Mark the new cluster "last link" */
1099:source\fatfs/ff.c **** 	if (res == FR_OK && clst != 0) {
1100:source\fatfs/ff.c **** 		res = put_fat(fs, clst, ncl);	/* Link it to the previous one if needed */
1101:source\fatfs/ff.c **** 	}
1102:source\fatfs/ff.c **** 	if (res == FR_OK) {
1103:source\fatfs/ff.c **** 		fs->last_clust = ncl;			/* Update FSINFO */
1104:source\fatfs/ff.c **** 		if (fs->free_clust != 0xFFFFFFFF) {
1105:source\fatfs/ff.c **** 			fs->free_clust--;
1106:source\fatfs/ff.c **** 			fs->fsi_flag |= 1;
1107:source\fatfs/ff.c **** 		}
1108:source\fatfs/ff.c **** 	} else {
1109:source\fatfs/ff.c **** 		ncl = (res == FR_DISK_ERR) ? 0xFFFFFFFF : 1;
1110:source\fatfs/ff.c **** 	}
1111:source\fatfs/ff.c **** 
1112:source\fatfs/ff.c **** 	return ncl;		/* Return new cluster number or error code */
1113:source\fatfs/ff.c **** }
1114:source\fatfs/ff.c **** #endif /* !_FS_READONLY */
1115:source\fatfs/ff.c **** 
1116:source\fatfs/ff.c **** 
1117:source\fatfs/ff.c **** 
1118:source\fatfs/ff.c **** 
1119:source\fatfs/ff.c **** /*-----------------------------------------------------------------------*/
1120:source\fatfs/ff.c **** /* FAT handling - Convert offset into cluster with link map table        */
1121:source\fatfs/ff.c **** /*-----------------------------------------------------------------------*/
1122:source\fatfs/ff.c **** 
1123:source\fatfs/ff.c **** #if _USE_FASTSEEK
1124:source\fatfs/ff.c **** static
1125:source\fatfs/ff.c **** DWORD clmt_clust (	/* <2:Error, >=2:Cluster number */
1126:source\fatfs/ff.c **** 	FIL* fp,		/* Pointer to the file object */
1127:source\fatfs/ff.c **** 	DWORD ofs		/* File offset to be converted to cluster# */
1128:source\fatfs/ff.c **** )
1129:source\fatfs/ff.c **** {
 566              		.loc 1 1129 1 is_stmt 1 view -0
 567              		.cfi_startproc
 568              		@ args = 0, pretend = 0, frame = 0
 569              		@ frame_needed = 0, uses_anonymous_args = 0
 570              		@ link register save eliminated.
1130:source\fatfs/ff.c **** 	DWORD cl, ncl, *tbl;
 571              		.loc 1 1130 2 view .LVU172
1131:source\fatfs/ff.c **** 
1132:source\fatfs/ff.c **** 
1133:source\fatfs/ff.c **** 	tbl = fp->cltbl + 1;	/* Top of CLMT */
 572              		.loc 1 1133 2 view .LVU173
 573              		.loc 1 1133 6 is_stmt 0 view .LVU174
 574 0000 D0F82432 		ldr	r3, [r0, #548]
1134:source\fatfs/ff.c **** 	cl = ofs / SS(fp->fs) / fp->fs->csize;	/* Cluster order from top of the file */
 575              		.loc 1 1134 32 view .LVU175
 576 0004 D0F80022 		ldr	r2, [r0, #512]
1133:source\fatfs/ff.c **** 	cl = ofs / SS(fp->fs) / fp->fs->csize;	/* Cluster order from top of the file */
 577              		.loc 1 1133 6 view .LVU176
 578 0008 0433     		adds	r3, r3, #4
 579              	.LVL55:
 580              		.loc 1 1134 2 is_stmt 1 view .LVU177
 581              		.loc 1 1134 32 is_stmt 0 view .LVU178
 582 000a 92F80222 		ldrb	r2, [r2, #514]	@ zero_extendqisi2
 583              		.loc 1 1134 11 view .LVU179
 584 000e 490A     		lsrs	r1, r1, #9
 585              	.LVL56:
 586              		.loc 1 1134 5 view .LVU180
 587 0010 B1FBF2F1 		udiv	r1, r1, r2
 588              	.LVL57:
 589              	.L67:
1135:source\fatfs/ff.c **** 	for (;;) {
 590              		.loc 1 1135 2 is_stmt 1 view .LVU181
1136:source\fatfs/ff.c **** 		ncl = *tbl++;			/* Number of cluters in the fragment */
 591              		.loc 1 1136 3 view .LVU182
 592              		.loc 1 1136 7 is_stmt 0 view .LVU183
 593 0014 1868     		ldr	r0, [r3]
 594              	.LVL58:
1137:source\fatfs/ff.c **** 		if (!ncl) return 0;		/* End of table? (error) */
 595              		.loc 1 1137 3 is_stmt 1 view .LVU184
 596              		.loc 1 1137 6 is_stmt 0 view .LVU185
 597 0016 30B1     		cbz	r0, .L64
1138:source\fatfs/ff.c **** 		if (cl < ncl) break;	/* In this fragment? */
 598              		.loc 1 1138 3 is_stmt 1 view .LVU186
 599              		.loc 1 1138 6 is_stmt 0 view .LVU187
 600 0018 8142     		cmp	r1, r0
 601 001a 02D3     		bcc	.L66
1139:source\fatfs/ff.c **** 		cl -= ncl; tbl++;		/* Next fragment */
 602              		.loc 1 1139 3 is_stmt 1 view .LVU188
 603              		.loc 1 1139 6 is_stmt 0 view .LVU189
 604 001c 091A     		subs	r1, r1, r0
 605              	.LVL59:
 606              		.loc 1 1139 14 is_stmt 1 view .LVU190
 607 001e 0833     		adds	r3, r3, #8
 608              	.LVL60:
1135:source\fatfs/ff.c **** 		ncl = *tbl++;			/* Number of cluters in the fragment */
 609              		.loc 1 1135 8 view .LVU191
1136:source\fatfs/ff.c **** 		if (!ncl) return 0;		/* End of table? (error) */
 610              		.loc 1 1136 7 is_stmt 0 view .LVU192
 611 0020 F8E7     		b	.L67
 612              	.LVL61:
 613              	.L66:
1140:source\fatfs/ff.c **** 	}
1141:source\fatfs/ff.c **** 	return cl + *tbl;	/* Return the cluster number */
 614              		.loc 1 1141 2 is_stmt 1 view .LVU193
 615              		.loc 1 1141 12 is_stmt 0 view .LVU194
 616 0022 5868     		ldr	r0, [r3, #4]
 617              	.LVL62:
 618              		.loc 1 1141 12 view .LVU195
 619 0024 0844     		add	r0, r0, r1
 620              	.L64:
1142:source\fatfs/ff.c **** }
 621              		.loc 1 1142 1 view .LVU196
 622 0026 7047     		bx	lr
 623              		.cfi_endproc
 624              	.LFE147:
 626              		.section	.text.sum_sfn,"ax",%progbits
 627              		.align	1
 628              		.syntax unified
 629              		.thumb
 630              		.thumb_func
 632              	sum_sfn:
 633              	.LVL63:
 634              	.LFB157:
1143:source\fatfs/ff.c **** #endif	/* _USE_FASTSEEK */
1144:source\fatfs/ff.c **** 
1145:source\fatfs/ff.c **** 
1146:source\fatfs/ff.c **** 
1147:source\fatfs/ff.c **** 
1148:source\fatfs/ff.c **** /*-----------------------------------------------------------------------*/
1149:source\fatfs/ff.c **** /* Directory handling - Set directory index                              */
1150:source\fatfs/ff.c **** /*-----------------------------------------------------------------------*/
1151:source\fatfs/ff.c **** 
1152:source\fatfs/ff.c **** static
1153:source\fatfs/ff.c **** FRESULT dir_sdi (
1154:source\fatfs/ff.c **** 	DIR* dp,		/* Pointer to directory object */
1155:source\fatfs/ff.c **** 	UINT idx		/* Index of directory table */
1156:source\fatfs/ff.c **** )
1157:source\fatfs/ff.c **** {
1158:source\fatfs/ff.c **** 	DWORD clst, sect;
1159:source\fatfs/ff.c **** 	UINT ic;
1160:source\fatfs/ff.c **** 
1161:source\fatfs/ff.c **** 
1162:source\fatfs/ff.c **** 	dp->index = (WORD)idx;	/* Current index */
1163:source\fatfs/ff.c **** 	clst = dp->sclust;		/* Table start cluster (0:root) */
1164:source\fatfs/ff.c **** 	if (clst == 1 || clst >= dp->fs->n_fatent)	/* Check start cluster range */
1165:source\fatfs/ff.c **** 		return FR_INT_ERR;
1166:source\fatfs/ff.c **** 	if (!clst && dp->fs->fs_type == FS_FAT32)	/* Replace cluster# 0 with root cluster# if in FAT32 */
1167:source\fatfs/ff.c **** 		clst = dp->fs->dirbase;
1168:source\fatfs/ff.c **** 
1169:source\fatfs/ff.c **** 	if (clst == 0) {	/* Static table (root-directory in FAT12/16) */
1170:source\fatfs/ff.c **** 		if (idx >= dp->fs->n_rootdir)	/* Is index out of range? */
1171:source\fatfs/ff.c **** 			return FR_INT_ERR;
1172:source\fatfs/ff.c **** 		sect = dp->fs->dirbase;
1173:source\fatfs/ff.c **** 	}
1174:source\fatfs/ff.c **** 	else {				/* Dynamic table (root-directory in FAT32 or sub-directory) */
1175:source\fatfs/ff.c **** 		ic = SS(dp->fs) / SZ_DIRE * dp->fs->csize;	/* Entries per cluster */
1176:source\fatfs/ff.c **** 		while (idx >= ic) {	/* Follow cluster chain */
1177:source\fatfs/ff.c **** 			clst = get_fat(dp->fs, clst);				/* Get next cluster */
1178:source\fatfs/ff.c **** 			if (clst == 0xFFFFFFFF) return FR_DISK_ERR;	/* Disk error */
1179:source\fatfs/ff.c **** 			if (clst < 2 || clst >= dp->fs->n_fatent)	/* Reached to end of table or internal error */
1180:source\fatfs/ff.c **** 				return FR_INT_ERR;
1181:source\fatfs/ff.c **** 			idx -= ic;
1182:source\fatfs/ff.c **** 		}
1183:source\fatfs/ff.c **** 		sect = clust2sect(dp->fs, clst);
1184:source\fatfs/ff.c **** 	}
1185:source\fatfs/ff.c **** 	dp->clust = clst;	/* Current cluster# */
1186:source\fatfs/ff.c **** 	if (!sect) return FR_INT_ERR;
1187:source\fatfs/ff.c **** 	dp->sect = sect + idx / (SS(dp->fs) / SZ_DIRE);					/* Sector# of the directory entry */
1188:source\fatfs/ff.c **** 	dp->dir = dp->fs->win.d8 + (idx % (SS(dp->fs) / SZ_DIRE)) * SZ_DIRE;	/* Ptr to the entry in the se
1189:source\fatfs/ff.c **** 
1190:source\fatfs/ff.c **** 	return FR_OK;
1191:source\fatfs/ff.c **** }
1192:source\fatfs/ff.c **** 
1193:source\fatfs/ff.c **** 
1194:source\fatfs/ff.c **** 
1195:source\fatfs/ff.c **** 
1196:source\fatfs/ff.c **** /*-----------------------------------------------------------------------*/
1197:source\fatfs/ff.c **** /* Directory handling - Move directory table index next                  */
1198:source\fatfs/ff.c **** /*-----------------------------------------------------------------------*/
1199:source\fatfs/ff.c **** 
1200:source\fatfs/ff.c **** static
1201:source\fatfs/ff.c **** FRESULT dir_next (	/* FR_OK:Succeeded, FR_NO_FILE:End of table, FR_DENIED:Could not stretch */
1202:source\fatfs/ff.c **** 	DIR* dp,		/* Pointer to the directory object */
1203:source\fatfs/ff.c **** 	int stretch		/* 0: Do not stretch table, 1: Stretch table if needed */
1204:source\fatfs/ff.c **** )
1205:source\fatfs/ff.c **** {
1206:source\fatfs/ff.c **** 	DWORD clst;
1207:source\fatfs/ff.c **** 	UINT i;
1208:source\fatfs/ff.c **** #if !_FS_READONLY
1209:source\fatfs/ff.c **** 	UINT c;
1210:source\fatfs/ff.c **** #endif
1211:source\fatfs/ff.c **** 
1212:source\fatfs/ff.c **** 
1213:source\fatfs/ff.c **** 	i = dp->index + 1;
1214:source\fatfs/ff.c **** 	if (!(i & 0xFFFF) || !dp->sect)	/* Report EOT when index has reached 65535 */
1215:source\fatfs/ff.c **** 		return FR_NO_FILE;
1216:source\fatfs/ff.c **** 
1217:source\fatfs/ff.c **** 	if (!(i % (SS(dp->fs) / SZ_DIRE))) {	/* Sector changed? */
1218:source\fatfs/ff.c **** 		dp->sect++;					/* Next sector */
1219:source\fatfs/ff.c **** 
1220:source\fatfs/ff.c **** 		if (!dp->clust) {		/* Static table */
1221:source\fatfs/ff.c **** 			if (i >= dp->fs->n_rootdir)	/* Report EOT if it reached end of static table */
1222:source\fatfs/ff.c **** 				return FR_NO_FILE;
1223:source\fatfs/ff.c **** 		}
1224:source\fatfs/ff.c **** 		else {					/* Dynamic table */
1225:source\fatfs/ff.c **** 			if (((i / (SS(dp->fs) / SZ_DIRE)) & (dp->fs->csize - 1)) == 0) {	/* Cluster changed? */
1226:source\fatfs/ff.c **** 				clst = get_fat(dp->fs, dp->clust);				/* Get next cluster */
1227:source\fatfs/ff.c **** 				if (clst <= 1) return FR_INT_ERR;
1228:source\fatfs/ff.c **** 				if (clst == 0xFFFFFFFF) return FR_DISK_ERR;
1229:source\fatfs/ff.c **** 				if (clst >= dp->fs->n_fatent) {					/* If it reached end of dynamic table, */
1230:source\fatfs/ff.c **** #if !_FS_READONLY
1231:source\fatfs/ff.c **** 					if (!stretch) return FR_NO_FILE;			/* If do not stretch, report EOT */
1232:source\fatfs/ff.c **** 					clst = create_chain(dp->fs, dp->clust);		/* Stretch cluster chain */
1233:source\fatfs/ff.c **** 					if (clst == 0) return FR_DENIED;			/* No free cluster */
1234:source\fatfs/ff.c **** 					if (clst == 1) return FR_INT_ERR;
1235:source\fatfs/ff.c **** 					if (clst == 0xFFFFFFFF) return FR_DISK_ERR;
1236:source\fatfs/ff.c **** 					/* Clean-up stretched table */
1237:source\fatfs/ff.c **** 					if (sync_window(dp->fs)) return FR_DISK_ERR;/* Flush disk access window */
1238:source\fatfs/ff.c **** 					mem_set(dp->fs->win.d8, 0, SS(dp->fs));		/* Clear window buffer */
1239:source\fatfs/ff.c **** 					dp->fs->winsect = clust2sect(dp->fs, clst);	/* Cluster start sector */
1240:source\fatfs/ff.c **** 					for (c = 0; c < dp->fs->csize; c++) {		/* Fill the new cluster with 0 */
1241:source\fatfs/ff.c **** 						dp->fs->wflag = 1;
1242:source\fatfs/ff.c **** 						if (sync_window(dp->fs)) return FR_DISK_ERR;
1243:source\fatfs/ff.c **** 						dp->fs->winsect++;
1244:source\fatfs/ff.c **** 					}
1245:source\fatfs/ff.c **** 					dp->fs->winsect -= c;						/* Rewind window offset */
1246:source\fatfs/ff.c **** #else
1247:source\fatfs/ff.c **** 					if (!stretch) return FR_NO_FILE;			/* If do not stretch, report EOT (this is to suppress warni
1248:source\fatfs/ff.c **** 					return FR_NO_FILE;							/* Report EOT */
1249:source\fatfs/ff.c **** #endif
1250:source\fatfs/ff.c **** 				}
1251:source\fatfs/ff.c **** 				dp->clust = clst;				/* Initialize data for new cluster */
1252:source\fatfs/ff.c **** 				dp->sect = clust2sect(dp->fs, clst);
1253:source\fatfs/ff.c **** 			}
1254:source\fatfs/ff.c **** 		}
1255:source\fatfs/ff.c **** 	}
1256:source\fatfs/ff.c **** 
1257:source\fatfs/ff.c **** 	dp->index = (WORD)i;	/* Current index */
1258:source\fatfs/ff.c **** 	dp->dir = dp->fs->win.d8 + (i % (SS(dp->fs) / SZ_DIRE)) * SZ_DIRE;	/* Current entry in the window 
1259:source\fatfs/ff.c **** 
1260:source\fatfs/ff.c **** 	return FR_OK;
1261:source\fatfs/ff.c **** }
1262:source\fatfs/ff.c **** 
1263:source\fatfs/ff.c **** 
1264:source\fatfs/ff.c **** 
1265:source\fatfs/ff.c **** 
1266:source\fatfs/ff.c **** /*-----------------------------------------------------------------------*/
1267:source\fatfs/ff.c **** /* Directory handling - Reserve directory entry                          */
1268:source\fatfs/ff.c **** /*-----------------------------------------------------------------------*/
1269:source\fatfs/ff.c **** 
1270:source\fatfs/ff.c **** #if !_FS_READONLY
1271:source\fatfs/ff.c **** static
1272:source\fatfs/ff.c **** FRESULT dir_alloc (
1273:source\fatfs/ff.c **** 	DIR* dp,	/* Pointer to the directory object */
1274:source\fatfs/ff.c **** 	UINT nent	/* Number of contiguous entries to allocate (1-21) */
1275:source\fatfs/ff.c **** )
1276:source\fatfs/ff.c **** {
1277:source\fatfs/ff.c **** 	FRESULT res;
1278:source\fatfs/ff.c **** 	UINT n;
1279:source\fatfs/ff.c **** 
1280:source\fatfs/ff.c **** 
1281:source\fatfs/ff.c **** 	res = dir_sdi(dp, 0);
1282:source\fatfs/ff.c **** 	if (res == FR_OK) {
1283:source\fatfs/ff.c **** 		n = 0;
1284:source\fatfs/ff.c **** 		do {
1285:source\fatfs/ff.c **** 			res = move_window(dp->fs, dp->sect);
1286:source\fatfs/ff.c **** 			if (res != FR_OK) break;
1287:source\fatfs/ff.c **** 			if (dp->dir[0] == DDEM || dp->dir[0] == 0) {	/* Is it a free entry? */
1288:source\fatfs/ff.c **** 				if (++n == nent) break;	/* A block of contiguous free entries is found */
1289:source\fatfs/ff.c **** 			} else {
1290:source\fatfs/ff.c **** 				n = 0;					/* Not a blank entry. Restart to search */
1291:source\fatfs/ff.c **** 			}
1292:source\fatfs/ff.c **** 			res = dir_next(dp, 1);		/* Next entry with table stretch enabled */
1293:source\fatfs/ff.c **** 		} while (res == FR_OK);
1294:source\fatfs/ff.c **** 	}
1295:source\fatfs/ff.c **** 	if (res == FR_NO_FILE) res = FR_DENIED;	/* No directory entry to allocate */
1296:source\fatfs/ff.c **** 	return res;
1297:source\fatfs/ff.c **** }
1298:source\fatfs/ff.c **** #endif
1299:source\fatfs/ff.c **** 
1300:source\fatfs/ff.c **** 
1301:source\fatfs/ff.c **** 
1302:source\fatfs/ff.c **** 
1303:source\fatfs/ff.c **** /*-----------------------------------------------------------------------*/
1304:source\fatfs/ff.c **** /* Directory handling - Load/Store start cluster number                  */
1305:source\fatfs/ff.c **** /*-----------------------------------------------------------------------*/
1306:source\fatfs/ff.c **** 
1307:source\fatfs/ff.c **** static
1308:source\fatfs/ff.c **** DWORD ld_clust (
1309:source\fatfs/ff.c **** 	FATFS* fs,	/* Pointer to the fs object */
1310:source\fatfs/ff.c **** 	BYTE* dir	/* Pointer to the directory entry */
1311:source\fatfs/ff.c **** )
1312:source\fatfs/ff.c **** {
1313:source\fatfs/ff.c **** 	DWORD cl;
1314:source\fatfs/ff.c **** 
1315:source\fatfs/ff.c **** 	cl = LD_WORD(dir + DIR_FstClusLO);
1316:source\fatfs/ff.c **** 	if (fs->fs_type == FS_FAT32)
1317:source\fatfs/ff.c **** 		cl |= (DWORD)LD_WORD(dir + DIR_FstClusHI) << 16;
1318:source\fatfs/ff.c **** 
1319:source\fatfs/ff.c **** 	return cl;
1320:source\fatfs/ff.c **** }
1321:source\fatfs/ff.c **** 
1322:source\fatfs/ff.c **** 
1323:source\fatfs/ff.c **** #if !_FS_READONLY
1324:source\fatfs/ff.c **** static
1325:source\fatfs/ff.c **** void st_clust (
1326:source\fatfs/ff.c **** 	BYTE* dir,	/* Pointer to the directory entry */
1327:source\fatfs/ff.c **** 	DWORD cl	/* Value to be set */
1328:source\fatfs/ff.c **** )
1329:source\fatfs/ff.c **** {
1330:source\fatfs/ff.c **** 	ST_WORD(dir + DIR_FstClusLO, cl);
1331:source\fatfs/ff.c **** 	ST_WORD(dir + DIR_FstClusHI, cl >> 16);
1332:source\fatfs/ff.c **** }
1333:source\fatfs/ff.c **** #endif
1334:source\fatfs/ff.c **** 
1335:source\fatfs/ff.c **** 
1336:source\fatfs/ff.c **** 
1337:source\fatfs/ff.c **** 
1338:source\fatfs/ff.c **** /*-----------------------------------------------------------------------*/
1339:source\fatfs/ff.c **** /* LFN handling - Test/Pick/Fit an LFN segment from/to directory entry   */
1340:source\fatfs/ff.c **** /*-----------------------------------------------------------------------*/
1341:source\fatfs/ff.c **** #if _USE_LFN
1342:source\fatfs/ff.c **** static
1343:source\fatfs/ff.c **** const BYTE LfnOfs[] = {1,3,5,7,9,14,16,18,20,22,24,28,30};	/* Offset of LFN characters in the direc
1344:source\fatfs/ff.c **** 
1345:source\fatfs/ff.c **** 
1346:source\fatfs/ff.c **** static
1347:source\fatfs/ff.c **** int cmp_lfn (			/* 1:Matched, 0:Not matched */
1348:source\fatfs/ff.c **** 	WCHAR* lfnbuf,		/* Pointer to the LFN to be compared */
1349:source\fatfs/ff.c **** 	BYTE* dir			/* Pointer to the directory entry containing a part of LFN */
1350:source\fatfs/ff.c **** )
1351:source\fatfs/ff.c **** {
1352:source\fatfs/ff.c **** 	UINT i, s;
1353:source\fatfs/ff.c **** 	WCHAR wc, uc;
1354:source\fatfs/ff.c **** 
1355:source\fatfs/ff.c **** 
1356:source\fatfs/ff.c **** 	i = ((dir[LDIR_Ord] & ~LLEF) - 1) * 13;	/* Get offset in the LFN buffer */
1357:source\fatfs/ff.c **** 	s = 0; wc = 1;
1358:source\fatfs/ff.c **** 	do {
1359:source\fatfs/ff.c **** 		uc = LD_WORD(dir + LfnOfs[s]);	/* Pick an LFN character from the entry */
1360:source\fatfs/ff.c **** 		if (wc) {	/* Last character has not been processed */
1361:source\fatfs/ff.c **** 			wc = ff_wtoupper(uc);		/* Convert it to upper case */
1362:source\fatfs/ff.c **** 			if (i >= _MAX_LFN || wc != ff_wtoupper(lfnbuf[i++]))	/* Compare it */
1363:source\fatfs/ff.c **** 				return 0;				/* Not matched */
1364:source\fatfs/ff.c **** 		} else {
1365:source\fatfs/ff.c **** 			if (uc != 0xFFFF) return 0;	/* Check filler */
1366:source\fatfs/ff.c **** 		}
1367:source\fatfs/ff.c **** 	} while (++s < 13);				/* Repeat until all characters in the entry are checked */
1368:source\fatfs/ff.c **** 
1369:source\fatfs/ff.c **** 	if ((dir[LDIR_Ord] & LLEF) && wc && lfnbuf[i])	/* Last segment matched but different length */
1370:source\fatfs/ff.c **** 		return 0;
1371:source\fatfs/ff.c **** 
1372:source\fatfs/ff.c **** 	return 1;						/* The part of LFN matched */
1373:source\fatfs/ff.c **** }
1374:source\fatfs/ff.c **** 
1375:source\fatfs/ff.c **** 
1376:source\fatfs/ff.c **** 
1377:source\fatfs/ff.c **** static
1378:source\fatfs/ff.c **** int pick_lfn (			/* 1:Succeeded, 0:Buffer overflow */
1379:source\fatfs/ff.c **** 	WCHAR* lfnbuf,		/* Pointer to the Unicode-LFN buffer */
1380:source\fatfs/ff.c **** 	BYTE* dir			/* Pointer to the directory entry */
1381:source\fatfs/ff.c **** )
1382:source\fatfs/ff.c **** {
1383:source\fatfs/ff.c **** 	UINT i, s;
1384:source\fatfs/ff.c **** 	WCHAR wc, uc;
1385:source\fatfs/ff.c **** 
1386:source\fatfs/ff.c **** 
1387:source\fatfs/ff.c **** 	i = ((dir[LDIR_Ord] & 0x3F) - 1) * 13;	/* Offset in the LFN buffer */
1388:source\fatfs/ff.c **** 
1389:source\fatfs/ff.c **** 	s = 0; wc = 1;
1390:source\fatfs/ff.c **** 	do {
1391:source\fatfs/ff.c **** 		uc = LD_WORD(dir + LfnOfs[s]);		/* Pick an LFN character from the entry */
1392:source\fatfs/ff.c **** 		if (wc) {	/* Last character has not been processed */
1393:source\fatfs/ff.c **** 			if (i >= _MAX_LFN) return 0;	/* Buffer overflow? */
1394:source\fatfs/ff.c **** 			lfnbuf[i++] = wc = uc;			/* Store it */
1395:source\fatfs/ff.c **** 		} else {
1396:source\fatfs/ff.c **** 			if (uc != 0xFFFF) return 0;		/* Check filler */
1397:source\fatfs/ff.c **** 		}
1398:source\fatfs/ff.c **** 	} while (++s < 13);						/* Read all character in the entry */
1399:source\fatfs/ff.c **** 
1400:source\fatfs/ff.c **** 	if (dir[LDIR_Ord] & LLEF) {				/* Put terminator if it is the last LFN part */
1401:source\fatfs/ff.c **** 		if (i >= _MAX_LFN) return 0;		/* Buffer overflow? */
1402:source\fatfs/ff.c **** 		lfnbuf[i] = 0;
1403:source\fatfs/ff.c **** 	}
1404:source\fatfs/ff.c **** 
1405:source\fatfs/ff.c **** 	return 1;
1406:source\fatfs/ff.c **** }
1407:source\fatfs/ff.c **** 
1408:source\fatfs/ff.c **** 
1409:source\fatfs/ff.c **** #if !_FS_READONLY
1410:source\fatfs/ff.c **** static
1411:source\fatfs/ff.c **** void fit_lfn (
1412:source\fatfs/ff.c **** 	const WCHAR* lfnbuf,	/* Pointer to the LFN buffer */
1413:source\fatfs/ff.c **** 	BYTE* dir,				/* Pointer to the directory entry */
1414:source\fatfs/ff.c **** 	BYTE ord,				/* LFN order (1-20) */
1415:source\fatfs/ff.c **** 	BYTE sum				/* SFN sum */
1416:source\fatfs/ff.c **** )
1417:source\fatfs/ff.c **** {
1418:source\fatfs/ff.c **** 	UINT i, s;
1419:source\fatfs/ff.c **** 	WCHAR wc;
1420:source\fatfs/ff.c **** 
1421:source\fatfs/ff.c **** 
1422:source\fatfs/ff.c **** 	dir[LDIR_Chksum] = sum;			/* Set check sum */
1423:source\fatfs/ff.c **** 	dir[LDIR_Attr] = AM_LFN;		/* Set attribute. LFN entry */
1424:source\fatfs/ff.c **** 	dir[LDIR_Type] = 0;
1425:source\fatfs/ff.c **** 	ST_WORD(dir + LDIR_FstClusLO, 0);
1426:source\fatfs/ff.c **** 
1427:source\fatfs/ff.c **** 	i = (ord - 1) * 13;				/* Get offset in the LFN buffer */
1428:source\fatfs/ff.c **** 	s = wc = 0;
1429:source\fatfs/ff.c **** 	do {
1430:source\fatfs/ff.c **** 		if (wc != 0xFFFF) wc = lfnbuf[i++];	/* Get an effective character */
1431:source\fatfs/ff.c **** 		ST_WORD(dir+LfnOfs[s], wc);	/* Put it */
1432:source\fatfs/ff.c **** 		if (!wc) wc = 0xFFFF;		/* Padding characters following last character */
1433:source\fatfs/ff.c **** 	} while (++s < 13);
1434:source\fatfs/ff.c **** 	if (wc == 0xFFFF || !lfnbuf[i]) ord |= LLEF;	/* Bottom LFN part is the start of LFN sequence */
1435:source\fatfs/ff.c **** 	dir[LDIR_Ord] = ord;			/* Set the LFN order */
1436:source\fatfs/ff.c **** }
1437:source\fatfs/ff.c **** 
1438:source\fatfs/ff.c **** #endif
1439:source\fatfs/ff.c **** #endif
1440:source\fatfs/ff.c **** 
1441:source\fatfs/ff.c **** 
1442:source\fatfs/ff.c **** 
1443:source\fatfs/ff.c **** 
1444:source\fatfs/ff.c **** /*-----------------------------------------------------------------------*/
1445:source\fatfs/ff.c **** /* Create numbered name                                                  */
1446:source\fatfs/ff.c **** /*-----------------------------------------------------------------------*/
1447:source\fatfs/ff.c **** #if _USE_LFN
1448:source\fatfs/ff.c **** static
1449:source\fatfs/ff.c **** void gen_numname (
1450:source\fatfs/ff.c **** 	BYTE* dst,			/* Pointer to the buffer to store numbered SFN */
1451:source\fatfs/ff.c **** 	const BYTE* src,	/* Pointer to SFN */
1452:source\fatfs/ff.c **** 	const WCHAR* lfn,	/* Pointer to LFN */
1453:source\fatfs/ff.c **** 	UINT seq			/* Sequence number */
1454:source\fatfs/ff.c **** )
1455:source\fatfs/ff.c **** {
1456:source\fatfs/ff.c **** 	BYTE ns[8], c;
1457:source\fatfs/ff.c **** 	UINT i, j;
1458:source\fatfs/ff.c **** 	WCHAR wc;
1459:source\fatfs/ff.c **** 	DWORD sr;
1460:source\fatfs/ff.c **** 
1461:source\fatfs/ff.c **** 
1462:source\fatfs/ff.c **** 	mem_cpy(dst, src, 11);
1463:source\fatfs/ff.c **** 
1464:source\fatfs/ff.c **** 	if (seq > 5) {	/* On many collisions, generate a hash number instead of sequential number */
1465:source\fatfs/ff.c **** 		sr = seq;
1466:source\fatfs/ff.c **** 		while (*lfn) {	/* Create a CRC */
1467:source\fatfs/ff.c **** 			wc = *lfn++;
1468:source\fatfs/ff.c **** 			for (i = 0; i < 16; i++) {
1469:source\fatfs/ff.c **** 				sr = (sr << 1) + (wc & 1);
1470:source\fatfs/ff.c **** 				wc >>= 1;
1471:source\fatfs/ff.c **** 				if (sr & 0x10000) sr ^= 0x11021;
1472:source\fatfs/ff.c **** 			}
1473:source\fatfs/ff.c **** 		}
1474:source\fatfs/ff.c **** 		seq = (UINT)sr;
1475:source\fatfs/ff.c **** 	}
1476:source\fatfs/ff.c **** 
1477:source\fatfs/ff.c **** 	/* itoa (hexdecimal) */
1478:source\fatfs/ff.c **** 	i = 7;
1479:source\fatfs/ff.c **** 	do {
1480:source\fatfs/ff.c **** 		c = (seq % 16) + '0';
1481:source\fatfs/ff.c **** 		if (c > '9') c += 7;
1482:source\fatfs/ff.c **** 		ns[i--] = c;
1483:source\fatfs/ff.c **** 		seq /= 16;
1484:source\fatfs/ff.c **** 	} while (seq);
1485:source\fatfs/ff.c **** 	ns[i] = '~';
1486:source\fatfs/ff.c **** 
1487:source\fatfs/ff.c **** 	/* Append the number */
1488:source\fatfs/ff.c **** 	for (j = 0; j < i && dst[j] != ' '; j++) {
1489:source\fatfs/ff.c **** 		if (IsDBCS1(dst[j])) {
1490:source\fatfs/ff.c **** 			if (j == i - 1) break;
1491:source\fatfs/ff.c **** 			j++;
1492:source\fatfs/ff.c **** 		}
1493:source\fatfs/ff.c **** 	}
1494:source\fatfs/ff.c **** 	do {
1495:source\fatfs/ff.c **** 		dst[j++] = (i < 8) ? ns[i++] : ' ';
1496:source\fatfs/ff.c **** 	} while (j < 8);
1497:source\fatfs/ff.c **** }
1498:source\fatfs/ff.c **** #endif
1499:source\fatfs/ff.c **** 
1500:source\fatfs/ff.c **** 
1501:source\fatfs/ff.c **** 
1502:source\fatfs/ff.c **** 
1503:source\fatfs/ff.c **** /*-----------------------------------------------------------------------*/
1504:source\fatfs/ff.c **** /* Calculate sum of an SFN                                               */
1505:source\fatfs/ff.c **** /*-----------------------------------------------------------------------*/
1506:source\fatfs/ff.c **** #if _USE_LFN
1507:source\fatfs/ff.c **** static
1508:source\fatfs/ff.c **** BYTE sum_sfn (
1509:source\fatfs/ff.c **** 	const BYTE* dir		/* Pointer to the SFN entry */
1510:source\fatfs/ff.c **** )
1511:source\fatfs/ff.c **** {
 635              		.loc 1 1511 1 is_stmt 1 view -0
 636              		.cfi_startproc
 637              		@ args = 0, pretend = 0, frame = 0
 638              		@ frame_needed = 0, uses_anonymous_args = 0
 639              		@ link register save eliminated.
1512:source\fatfs/ff.c **** 	BYTE sum = 0;
 640              		.loc 1 1512 2 view .LVU198
1513:source\fatfs/ff.c **** 	UINT n = 11;
 641              		.loc 1 1513 2 view .LVU199
 642              		.loc 1 1513 2 is_stmt 0 view .LVU200
 643 0000 00F10B01 		add	r1, r0, #11
1512:source\fatfs/ff.c **** 	BYTE sum = 0;
 644              		.loc 1 1512 7 view .LVU201
 645 0004 0022     		movs	r2, #0
 646              	.LVL64:
 647              	.L72:
1514:source\fatfs/ff.c **** 
1515:source\fatfs/ff.c **** 	do sum = (sum >> 1) + (sum << 7) + *dir++; while (--n);
 648              		.loc 1 1515 2 is_stmt 1 discriminator 1 view .LVU202
 649              		.loc 1 1515 5 discriminator 1 view .LVU203
 650              		.loc 1 1515 22 is_stmt 0 discriminator 1 view .LVU204
 651 0006 D301     		lsls	r3, r2, #7
 652 0008 43EA5203 		orr	r3, r3, r2, lsr #1
 653              		.loc 1 1515 9 discriminator 1 view .LVU205
 654 000c 10F8012B 		ldrb	r2, [r0], #1	@ zero_extendqisi2
 655              	.LVL65:
 656              		.loc 1 1515 9 discriminator 1 view .LVU206
 657 0010 52FA83F3 		uxtab	r3, r2, r3
 658              		.loc 1 1515 2 discriminator 1 view .LVU207
 659 0014 8842     		cmp	r0, r1
 660              		.loc 1 1515 9 discriminator 1 view .LVU208
 661 0016 DAB2     		uxtb	r2, r3
 662              	.LVL66:
 663              		.loc 1 1515 51 is_stmt 1 discriminator 1 view .LVU209
 664              		.loc 1 1515 2 is_stmt 0 discriminator 1 view .LVU210
 665 0018 F5D1     		bne	.L72
1516:source\fatfs/ff.c **** 	return sum;
 666              		.loc 1 1516 2 is_stmt 1 view .LVU211
1517:source\fatfs/ff.c **** }
 667              		.loc 1 1517 1 is_stmt 0 view .LVU212
 668 001a 1046     		mov	r0, r2
 669              	.LVL67:
 670              		.loc 1 1517 1 view .LVU213
 671 001c 7047     		bx	lr
 672              		.cfi_endproc
 673              	.LFE157:
 675              		.section	.text.get_ldnumber,"ax",%progbits
 676              		.align	1
 677              		.syntax unified
 678              		.thumb
 679              		.thumb_func
 681              	get_ldnumber:
 682              	.LVL68:
 683              	.LFB165:
1518:source\fatfs/ff.c **** #endif
1519:source\fatfs/ff.c **** 
1520:source\fatfs/ff.c **** 
1521:source\fatfs/ff.c **** 
1522:source\fatfs/ff.c **** 
1523:source\fatfs/ff.c **** /*-----------------------------------------------------------------------*/
1524:source\fatfs/ff.c **** /* Directory handling - Find an object in the directory                  */
1525:source\fatfs/ff.c **** /*-----------------------------------------------------------------------*/
1526:source\fatfs/ff.c **** 
1527:source\fatfs/ff.c **** static
1528:source\fatfs/ff.c **** FRESULT dir_find (
1529:source\fatfs/ff.c **** 	DIR* dp			/* Pointer to the directory object linked to the file name */
1530:source\fatfs/ff.c **** )
1531:source\fatfs/ff.c **** {
1532:source\fatfs/ff.c **** 	FRESULT res;
1533:source\fatfs/ff.c **** 	BYTE c, *dir;
1534:source\fatfs/ff.c **** #if _USE_LFN
1535:source\fatfs/ff.c **** 	BYTE a, ord, sum;
1536:source\fatfs/ff.c **** #endif
1537:source\fatfs/ff.c **** 
1538:source\fatfs/ff.c **** 	res = dir_sdi(dp, 0);			/* Rewind directory object */
1539:source\fatfs/ff.c **** 	if (res != FR_OK) return res;
1540:source\fatfs/ff.c **** 
1541:source\fatfs/ff.c **** #if _USE_LFN
1542:source\fatfs/ff.c **** 	ord = sum = 0xFF; dp->lfn_idx = 0xFFFF;	/* Reset LFN sequence */
1543:source\fatfs/ff.c **** #endif
1544:source\fatfs/ff.c **** 	do {
1545:source\fatfs/ff.c **** 		res = move_window(dp->fs, dp->sect);
1546:source\fatfs/ff.c **** 		if (res != FR_OK) break;
1547:source\fatfs/ff.c **** 		dir = dp->dir;					/* Ptr to the directory entry of current index */
1548:source\fatfs/ff.c **** 		c = dir[DIR_Name];
1549:source\fatfs/ff.c **** 		if (c == 0) { res = FR_NO_FILE; break; }	/* Reached to end of table */
1550:source\fatfs/ff.c **** #if _USE_LFN	/* LFN configuration */
1551:source\fatfs/ff.c **** 		a = dir[DIR_Attr] & AM_MASK;
1552:source\fatfs/ff.c **** 		if (c == DDEM || ((a & AM_VOL) && a != AM_LFN)) {	/* An entry without valid data */
1553:source\fatfs/ff.c **** 			ord = 0xFF; dp->lfn_idx = 0xFFFF;	/* Reset LFN sequence */
1554:source\fatfs/ff.c **** 		} else {
1555:source\fatfs/ff.c **** 			if (a == AM_LFN) {			/* An LFN entry is found */
1556:source\fatfs/ff.c **** 				if (dp->lfn) {
1557:source\fatfs/ff.c **** 					if (c & LLEF) {		/* Is it start of LFN sequence? */
1558:source\fatfs/ff.c **** 						sum = dir[LDIR_Chksum];
1559:source\fatfs/ff.c **** 						c &= ~LLEF; ord = c;	/* LFN start order */
1560:source\fatfs/ff.c **** 						dp->lfn_idx = dp->index;	/* Start index of LFN */
1561:source\fatfs/ff.c **** 					}
1562:source\fatfs/ff.c **** 					/* Check validity of the LFN entry and compare it with given name */
1563:source\fatfs/ff.c **** 					ord = (c == ord && sum == dir[LDIR_Chksum] && cmp_lfn(dp->lfn, dir)) ? ord - 1 : 0xFF;
1564:source\fatfs/ff.c **** 				}
1565:source\fatfs/ff.c **** 			} else {					/* An SFN entry is found */
1566:source\fatfs/ff.c **** 				if (!ord && sum == sum_sfn(dir)) break;	/* LFN matched? */
1567:source\fatfs/ff.c **** 				if (!(dp->fn[NSFLAG] & NS_LOSS) && !mem_cmp(dir, dp->fn, 11)) break;	/* SFN matched? */
1568:source\fatfs/ff.c **** 				ord = 0xFF; dp->lfn_idx = 0xFFFF;	/* Reset LFN sequence */
1569:source\fatfs/ff.c **** 			}
1570:source\fatfs/ff.c **** 		}
1571:source\fatfs/ff.c **** #else		/* Non LFN configuration */
1572:source\fatfs/ff.c **** 		if (!(dir[DIR_Attr] & AM_VOL) && !mem_cmp(dir, dp->fn, 11)) /* Is it a valid entry? */
1573:source\fatfs/ff.c **** 			break;
1574:source\fatfs/ff.c **** #endif
1575:source\fatfs/ff.c **** 		res = dir_next(dp, 0);		/* Next entry */
1576:source\fatfs/ff.c **** 	} while (res == FR_OK);
1577:source\fatfs/ff.c **** 
1578:source\fatfs/ff.c **** 	return res;
1579:source\fatfs/ff.c **** }
1580:source\fatfs/ff.c **** 
1581:source\fatfs/ff.c **** 
1582:source\fatfs/ff.c **** 
1583:source\fatfs/ff.c **** 
1584:source\fatfs/ff.c **** /*-----------------------------------------------------------------------*/
1585:source\fatfs/ff.c **** /* Read an object from the directory                                     */
1586:source\fatfs/ff.c **** /*-----------------------------------------------------------------------*/
1587:source\fatfs/ff.c **** #if _FS_MINIMIZE <= 1 || _USE_LABEL || _FS_RPATH >= 2
1588:source\fatfs/ff.c **** static
1589:source\fatfs/ff.c **** FRESULT dir_read (
1590:source\fatfs/ff.c **** 	DIR* dp,		/* Pointer to the directory object */
1591:source\fatfs/ff.c **** 	int vol			/* Filtered by 0:file/directory or 1:volume label */
1592:source\fatfs/ff.c **** )
1593:source\fatfs/ff.c **** {
1594:source\fatfs/ff.c **** 	FRESULT res;
1595:source\fatfs/ff.c **** 	BYTE a, c, *dir;
1596:source\fatfs/ff.c **** #if _USE_LFN
1597:source\fatfs/ff.c **** 	BYTE ord = 0xFF, sum = 0xFF;
1598:source\fatfs/ff.c **** #endif
1599:source\fatfs/ff.c **** 
1600:source\fatfs/ff.c **** 	res = FR_NO_FILE;
1601:source\fatfs/ff.c **** 	while (dp->sect) {
1602:source\fatfs/ff.c **** 		res = move_window(dp->fs, dp->sect);
1603:source\fatfs/ff.c **** 		if (res != FR_OK) break;
1604:source\fatfs/ff.c **** 		dir = dp->dir;					/* Ptr to the directory entry of current index */
1605:source\fatfs/ff.c **** 		c = dir[DIR_Name];
1606:source\fatfs/ff.c **** 		if (c == 0) { res = FR_NO_FILE; break; }	/* Reached to end of table */
1607:source\fatfs/ff.c **** 		a = dir[DIR_Attr] & AM_MASK;
1608:source\fatfs/ff.c **** #if _USE_LFN	/* LFN configuration */
1609:source\fatfs/ff.c **** 		if (c == DDEM || (!_FS_RPATH && c == '.') || (int)((a & ~AM_ARC) == AM_VOL) != vol) {	/* An entry
1610:source\fatfs/ff.c **** 			ord = 0xFF;
1611:source\fatfs/ff.c **** 		} else {
1612:source\fatfs/ff.c **** 			if (a == AM_LFN) {			/* An LFN entry is found */
1613:source\fatfs/ff.c **** 				if (c & LLEF) {			/* Is it start of LFN sequence? */
1614:source\fatfs/ff.c **** 					sum = dir[LDIR_Chksum];
1615:source\fatfs/ff.c **** 					c &= ~LLEF; ord = c;
1616:source\fatfs/ff.c **** 					dp->lfn_idx = dp->index;
1617:source\fatfs/ff.c **** 				}
1618:source\fatfs/ff.c **** 				/* Check LFN validity and capture it */
1619:source\fatfs/ff.c **** 				ord = (c == ord && sum == dir[LDIR_Chksum] && pick_lfn(dp->lfn, dir)) ? ord - 1 : 0xFF;
1620:source\fatfs/ff.c **** 			} else {					/* An SFN entry is found */
1621:source\fatfs/ff.c **** 				if (ord || sum != sum_sfn(dir))	/* Is there a valid LFN? */
1622:source\fatfs/ff.c **** 					dp->lfn_idx = 0xFFFF;		/* It has no LFN. */
1623:source\fatfs/ff.c **** 				break;
1624:source\fatfs/ff.c **** 			}
1625:source\fatfs/ff.c **** 		}
1626:source\fatfs/ff.c **** #else		/* Non LFN configuration */
1627:source\fatfs/ff.c **** 		if (c != DDEM && (_FS_RPATH || c != '.') && a != AM_LFN && (int)((a & ~AM_ARC) == AM_VOL) == vol)
1628:source\fatfs/ff.c **** 			break;
1629:source\fatfs/ff.c **** #endif
1630:source\fatfs/ff.c **** 		res = dir_next(dp, 0);				/* Next entry */
1631:source\fatfs/ff.c **** 		if (res != FR_OK) break;
1632:source\fatfs/ff.c **** 	}
1633:source\fatfs/ff.c **** 
1634:source\fatfs/ff.c **** 	if (res != FR_OK) dp->sect = 0;
1635:source\fatfs/ff.c **** 
1636:source\fatfs/ff.c **** 	return res;
1637:source\fatfs/ff.c **** }
1638:source\fatfs/ff.c **** #endif	/* _FS_MINIMIZE <= 1 || _USE_LABEL || _FS_RPATH >= 2 */
1639:source\fatfs/ff.c **** 
1640:source\fatfs/ff.c **** 
1641:source\fatfs/ff.c **** 
1642:source\fatfs/ff.c **** 
1643:source\fatfs/ff.c **** /*-----------------------------------------------------------------------*/
1644:source\fatfs/ff.c **** /* Register an object to the directory                                   */
1645:source\fatfs/ff.c **** /*-----------------------------------------------------------------------*/
1646:source\fatfs/ff.c **** #if !_FS_READONLY
1647:source\fatfs/ff.c **** static
1648:source\fatfs/ff.c **** FRESULT dir_register (	/* FR_OK:Successful, FR_DENIED:No free entry or too many SFN collision, FR_D
1649:source\fatfs/ff.c **** 	DIR* dp				/* Target directory with object name to be created */
1650:source\fatfs/ff.c **** )
1651:source\fatfs/ff.c **** {
1652:source\fatfs/ff.c **** 	FRESULT res;
1653:source\fatfs/ff.c **** #if _USE_LFN	/* LFN configuration */
1654:source\fatfs/ff.c **** 	UINT n, nent;
1655:source\fatfs/ff.c **** 	BYTE sn[12], *fn, sum;
1656:source\fatfs/ff.c **** 	WCHAR *lfn;
1657:source\fatfs/ff.c **** 
1658:source\fatfs/ff.c **** 
1659:source\fatfs/ff.c **** 	fn = dp->fn; lfn = dp->lfn;
1660:source\fatfs/ff.c **** 	mem_cpy(sn, fn, 12);
1661:source\fatfs/ff.c **** 
1662:source\fatfs/ff.c **** 	if (_FS_RPATH && (sn[NSFLAG] & NS_DOT))		/* Cannot create dot entry */
1663:source\fatfs/ff.c **** 		return FR_INVALID_NAME;
1664:source\fatfs/ff.c **** 
1665:source\fatfs/ff.c **** 	if (sn[NSFLAG] & NS_LOSS) {			/* When LFN is out of 8.3 format, generate a numbered name */
1666:source\fatfs/ff.c **** 		fn[NSFLAG] = 0; dp->lfn = 0;			/* Find only SFN */
1667:source\fatfs/ff.c **** 		for (n = 1; n < 100; n++) {
1668:source\fatfs/ff.c **** 			gen_numname(fn, sn, lfn, n);	/* Generate a numbered name */
1669:source\fatfs/ff.c **** 			res = dir_find(dp);				/* Check if the name collides with existing SFN */
1670:source\fatfs/ff.c **** 			if (res != FR_OK) break;
1671:source\fatfs/ff.c **** 		}
1672:source\fatfs/ff.c **** 		if (n == 100) return FR_DENIED;		/* Abort if too many collisions */
1673:source\fatfs/ff.c **** 		if (res != FR_NO_FILE) return res;	/* Abort if the result is other than 'not collided' */
1674:source\fatfs/ff.c **** 		fn[NSFLAG] = sn[NSFLAG]; dp->lfn = lfn;
1675:source\fatfs/ff.c **** 	}
1676:source\fatfs/ff.c **** 
1677:source\fatfs/ff.c **** 	if (sn[NSFLAG] & NS_LFN) {			/* When LFN is to be created, allocate entries for an SFN + LFNs. */
1678:source\fatfs/ff.c **** 		for (n = 0; lfn[n]; n++) ;
1679:source\fatfs/ff.c **** 		nent = (n + 25) / 13;
1680:source\fatfs/ff.c **** 	} else {						/* Otherwise allocate an entry for an SFN  */
1681:source\fatfs/ff.c **** 		nent = 1;
1682:source\fatfs/ff.c **** 	}
1683:source\fatfs/ff.c **** 	res = dir_alloc(dp, nent);		/* Allocate entries */
1684:source\fatfs/ff.c **** 
1685:source\fatfs/ff.c **** 	if (res == FR_OK && --nent) {	/* Set LFN entry if needed */
1686:source\fatfs/ff.c **** 		res = dir_sdi(dp, dp->index - nent);
1687:source\fatfs/ff.c **** 		if (res == FR_OK) {
1688:source\fatfs/ff.c **** 			sum = sum_sfn(dp->fn);	/* Sum value of the SFN tied to the LFN */
1689:source\fatfs/ff.c **** 			do {					/* Store LFN entries in bottom first */
1690:source\fatfs/ff.c **** 				res = move_window(dp->fs, dp->sect);
1691:source\fatfs/ff.c **** 				if (res != FR_OK) break;
1692:source\fatfs/ff.c **** 				fit_lfn(dp->lfn, dp->dir, (BYTE)nent, sum);
1693:source\fatfs/ff.c **** 				dp->fs->wflag = 1;
1694:source\fatfs/ff.c **** 				res = dir_next(dp, 0);	/* Next entry */
1695:source\fatfs/ff.c **** 			} while (res == FR_OK && --nent);
1696:source\fatfs/ff.c **** 		}
1697:source\fatfs/ff.c **** 	}
1698:source\fatfs/ff.c **** #else	/* Non LFN configuration */
1699:source\fatfs/ff.c **** 	res = dir_alloc(dp, 1);		/* Allocate an entry for SFN */
1700:source\fatfs/ff.c **** #endif
1701:source\fatfs/ff.c **** 
1702:source\fatfs/ff.c **** 	if (res == FR_OK) {				/* Set SFN entry */
1703:source\fatfs/ff.c **** 		res = move_window(dp->fs, dp->sect);
1704:source\fatfs/ff.c **** 		if (res == FR_OK) {
1705:source\fatfs/ff.c **** 			mem_set(dp->dir, 0, SZ_DIRE);	/* Clean the entry */
1706:source\fatfs/ff.c **** 			mem_cpy(dp->dir, dp->fn, 11);	/* Put SFN */
1707:source\fatfs/ff.c **** #if _USE_LFN
1708:source\fatfs/ff.c **** 			dp->dir[DIR_NTres] = dp->fn[NSFLAG] & (NS_BODY | NS_EXT);	/* Put NT flag */
1709:source\fatfs/ff.c **** #endif
1710:source\fatfs/ff.c **** 			dp->fs->wflag = 1;
1711:source\fatfs/ff.c **** 		}
1712:source\fatfs/ff.c **** 	}
1713:source\fatfs/ff.c **** 
1714:source\fatfs/ff.c **** 	return res;
1715:source\fatfs/ff.c **** }
1716:source\fatfs/ff.c **** #endif /* !_FS_READONLY */
1717:source\fatfs/ff.c **** 
1718:source\fatfs/ff.c **** 
1719:source\fatfs/ff.c **** 
1720:source\fatfs/ff.c **** 
1721:source\fatfs/ff.c **** /*-----------------------------------------------------------------------*/
1722:source\fatfs/ff.c **** /* Remove an object from the directory                                   */
1723:source\fatfs/ff.c **** /*-----------------------------------------------------------------------*/
1724:source\fatfs/ff.c **** #if !_FS_READONLY && !_FS_MINIMIZE
1725:source\fatfs/ff.c **** static
1726:source\fatfs/ff.c **** FRESULT dir_remove (	/* FR_OK: Successful, FR_DISK_ERR: A disk error */
1727:source\fatfs/ff.c **** 	DIR* dp				/* Directory object pointing the entry to be removed */
1728:source\fatfs/ff.c **** )
1729:source\fatfs/ff.c **** {
1730:source\fatfs/ff.c **** 	FRESULT res;
1731:source\fatfs/ff.c **** #if _USE_LFN	/* LFN configuration */
1732:source\fatfs/ff.c **** 	UINT i;
1733:source\fatfs/ff.c **** 
1734:source\fatfs/ff.c **** 	i = dp->index;	/* SFN index */
1735:source\fatfs/ff.c **** 	res = dir_sdi(dp, (dp->lfn_idx == 0xFFFF) ? i : dp->lfn_idx);	/* Goto the SFN or top of the LFN en
1736:source\fatfs/ff.c **** 	if (res == FR_OK) {
1737:source\fatfs/ff.c **** 		do {
1738:source\fatfs/ff.c **** 			res = move_window(dp->fs, dp->sect);
1739:source\fatfs/ff.c **** 			if (res != FR_OK) break;
1740:source\fatfs/ff.c **** 			mem_set(dp->dir, 0, SZ_DIRE);	/* Clear and mark the entry "deleted" */
1741:source\fatfs/ff.c **** 			*dp->dir = DDEM;
1742:source\fatfs/ff.c **** 			dp->fs->wflag = 1;
1743:source\fatfs/ff.c **** 			if (dp->index >= i) break;	/* When reached SFN, all entries of the object has been deleted. */
1744:source\fatfs/ff.c **** 			res = dir_next(dp, 0);		/* Next entry */
1745:source\fatfs/ff.c **** 		} while (res == FR_OK);
1746:source\fatfs/ff.c **** 		if (res == FR_NO_FILE) res = FR_INT_ERR;
1747:source\fatfs/ff.c **** 	}
1748:source\fatfs/ff.c **** 
1749:source\fatfs/ff.c **** #else			/* Non LFN configuration */
1750:source\fatfs/ff.c **** 	res = dir_sdi(dp, dp->index);
1751:source\fatfs/ff.c **** 	if (res == FR_OK) {
1752:source\fatfs/ff.c **** 		res = move_window(dp->fs, dp->sect);
1753:source\fatfs/ff.c **** 		if (res == FR_OK) {
1754:source\fatfs/ff.c **** 			mem_set(dp->dir, 0, SZ_DIRE);	/* Clear and mark the entry "deleted" */
1755:source\fatfs/ff.c **** 			*dp->dir = DDEM;
1756:source\fatfs/ff.c **** 			dp->fs->wflag = 1;
1757:source\fatfs/ff.c **** 		}
1758:source\fatfs/ff.c **** 	}
1759:source\fatfs/ff.c **** #endif
1760:source\fatfs/ff.c **** 
1761:source\fatfs/ff.c **** 	return res;
1762:source\fatfs/ff.c **** }
1763:source\fatfs/ff.c **** #endif /* !_FS_READONLY */
1764:source\fatfs/ff.c **** 
1765:source\fatfs/ff.c **** 
1766:source\fatfs/ff.c **** 
1767:source\fatfs/ff.c **** 
1768:source\fatfs/ff.c **** /*-----------------------------------------------------------------------*/
1769:source\fatfs/ff.c **** /* Get file information from directory entry                             */
1770:source\fatfs/ff.c **** /*-----------------------------------------------------------------------*/
1771:source\fatfs/ff.c **** #if _FS_MINIMIZE <= 1 || _FS_RPATH >= 2
1772:source\fatfs/ff.c **** static
1773:source\fatfs/ff.c **** void get_fileinfo (		/* No return code */
1774:source\fatfs/ff.c **** 	DIR* dp,			/* Pointer to the directory object */
1775:source\fatfs/ff.c **** 	FILINFO* fno	 	/* Pointer to the file information to be filled */
1776:source\fatfs/ff.c **** )
1777:source\fatfs/ff.c **** {
1778:source\fatfs/ff.c **** 	UINT i;
1779:source\fatfs/ff.c **** 	TCHAR *p, c;
1780:source\fatfs/ff.c **** 	BYTE *dir;
1781:source\fatfs/ff.c **** #if _USE_LFN
1782:source\fatfs/ff.c **** 	WCHAR w, *lfn;
1783:source\fatfs/ff.c **** #endif
1784:source\fatfs/ff.c **** 
1785:source\fatfs/ff.c **** 	p = fno->fname;
1786:source\fatfs/ff.c **** 	if (dp->sect) {		/* Get SFN */
1787:source\fatfs/ff.c **** 		dir = dp->dir;
1788:source\fatfs/ff.c **** 		i = 0;
1789:source\fatfs/ff.c **** 		while (i < 11) {		/* Copy name body and extension */
1790:source\fatfs/ff.c **** 			c = (TCHAR)dir[i++];
1791:source\fatfs/ff.c **** 			if (c == ' ') continue;				/* Skip padding spaces */
1792:source\fatfs/ff.c **** 			if (c == RDDEM) c = (TCHAR)DDEM;	/* Restore replaced DDEM character */
1793:source\fatfs/ff.c **** 			if (i == 9) *p++ = '.';				/* Insert a . if extension is exist */
1794:source\fatfs/ff.c **** #if _USE_LFN
1795:source\fatfs/ff.c **** 			if (IsUpper(c) && (dir[DIR_NTres] & (i >= 9 ? NS_EXT : NS_BODY)))
1796:source\fatfs/ff.c **** 				c += 0x20;			/* To lower */
1797:source\fatfs/ff.c **** #if _LFN_UNICODE
1798:source\fatfs/ff.c **** 			if (IsDBCS1(c) && i != 8 && i != 11 && IsDBCS2(dir[i]))
1799:source\fatfs/ff.c **** 				c = c << 8 | dir[i++];
1800:source\fatfs/ff.c **** 			c = ff_convert(c, 1);	/* OEM -> Unicode */
1801:source\fatfs/ff.c **** 			if (!c) c = '?';
1802:source\fatfs/ff.c **** #endif
1803:source\fatfs/ff.c **** #endif
1804:source\fatfs/ff.c **** 			*p++ = c;
1805:source\fatfs/ff.c **** 		}
1806:source\fatfs/ff.c **** 		fno->fattrib = dir[DIR_Attr];				/* Attribute */
1807:source\fatfs/ff.c **** 		fno->fsize = LD_DWORD(dir + DIR_FileSize);	/* Size */
1808:source\fatfs/ff.c **** 		fno->fdate = LD_WORD(dir + DIR_WrtDate);	/* Date */
1809:source\fatfs/ff.c **** 		fno->ftime = LD_WORD(dir + DIR_WrtTime);	/* Time */
1810:source\fatfs/ff.c **** 	}
1811:source\fatfs/ff.c **** 	*p = 0;		/* Terminate SFN string by a \0 */
1812:source\fatfs/ff.c **** 
1813:source\fatfs/ff.c **** #if _USE_LFN
1814:source\fatfs/ff.c **** 	if (fno->lfname) {
1815:source\fatfs/ff.c **** 		i = 0; p = fno->lfname;
1816:source\fatfs/ff.c **** 		if (dp->sect && fno->lfsize && dp->lfn_idx != 0xFFFF) {	/* Get LFN if available */
1817:source\fatfs/ff.c **** 			lfn = dp->lfn;
1818:source\fatfs/ff.c **** 			while ((w = *lfn++) != 0) {		/* Get an LFN character */
1819:source\fatfs/ff.c **** #if !_LFN_UNICODE
1820:source\fatfs/ff.c **** 				w = ff_convert(w, 0);		/* Unicode -> OEM */
1821:source\fatfs/ff.c **** 				if (!w) { i = 0; break; }	/* No LFN if it could not be converted */
1822:source\fatfs/ff.c **** 				if (_DF1S && w >= 0x100)	/* Put 1st byte if it is a DBC (always false on SBCS cfg) */
1823:source\fatfs/ff.c **** 					p[i++] = (TCHAR)(w >> 8);
1824:source\fatfs/ff.c **** #endif
1825:source\fatfs/ff.c **** 				if (i >= fno->lfsize - 1) { i = 0; break; }	/* No LFN if buffer overflow */
1826:source\fatfs/ff.c **** 				p[i++] = (TCHAR)w;
1827:source\fatfs/ff.c **** 			}
1828:source\fatfs/ff.c **** 		}
1829:source\fatfs/ff.c **** 		p[i] = 0;	/* Terminate LFN string by a \0 */
1830:source\fatfs/ff.c **** 	}
1831:source\fatfs/ff.c **** #endif
1832:source\fatfs/ff.c **** }
1833:source\fatfs/ff.c **** #endif /* _FS_MINIMIZE <= 1 || _FS_RPATH >= 2 */
1834:source\fatfs/ff.c **** 
1835:source\fatfs/ff.c **** 
1836:source\fatfs/ff.c **** 
1837:source\fatfs/ff.c **** 
1838:source\fatfs/ff.c **** /*-----------------------------------------------------------------------*/
1839:source\fatfs/ff.c **** /* Pattern matching                                                      */
1840:source\fatfs/ff.c **** /*-----------------------------------------------------------------------*/
1841:source\fatfs/ff.c **** #if _USE_FIND && _FS_MINIMIZE <= 1
1842:source\fatfs/ff.c **** static
1843:source\fatfs/ff.c **** WCHAR get_achar (		/* Get a character and advances ptr 1 or 2 */
1844:source\fatfs/ff.c **** 	const TCHAR** ptr	/* Pointer to pointer to the SBCS/DBCS/Unicode string */
1845:source\fatfs/ff.c **** )
1846:source\fatfs/ff.c **** {
1847:source\fatfs/ff.c **** 	WCHAR chr;
1848:source\fatfs/ff.c **** 
1849:source\fatfs/ff.c **** #if !_LFN_UNICODE
1850:source\fatfs/ff.c **** 	chr = (BYTE)*(*ptr)++;					/* Get a byte */
1851:source\fatfs/ff.c **** 	if (IsLower(chr)) chr -= 0x20;			/* To upper ASCII char */
1852:source\fatfs/ff.c **** 	if (IsDBCS1(chr) && IsDBCS2(**ptr))		/* Get DBC 2nd byte if needed */
1853:source\fatfs/ff.c **** 		chr = chr << 8 | (BYTE)*(*ptr)++;
1854:source\fatfs/ff.c **** #ifdef _EXCVT
1855:source\fatfs/ff.c **** 	if (chr >= 0x80) chr = ExCvt[chr - 0x80];	/* To upper SBCS extended char */
1856:source\fatfs/ff.c **** #endif
1857:source\fatfs/ff.c **** #else
1858:source\fatfs/ff.c **** 	chr = ff_wtoupper(*(*ptr)++);			/* Get a word and to upper */
1859:source\fatfs/ff.c **** #endif
1860:source\fatfs/ff.c **** 	return chr;
1861:source\fatfs/ff.c **** }
1862:source\fatfs/ff.c **** 
1863:source\fatfs/ff.c **** 
1864:source\fatfs/ff.c **** static
1865:source\fatfs/ff.c **** int pattern_matching (	/* Return value: 0:mismatched, 1:matched */
1866:source\fatfs/ff.c **** 	const TCHAR* pat,	/* Matching pattern */
1867:source\fatfs/ff.c **** 	const TCHAR* nam,	/* String to be tested */
1868:source\fatfs/ff.c **** 	int skip,			/* Number of pre-skip chars (number of ?s) */
1869:source\fatfs/ff.c **** 	int inf				/* Infinite search (* specified) */
1870:source\fatfs/ff.c **** )
1871:source\fatfs/ff.c **** {
1872:source\fatfs/ff.c **** 	const TCHAR *pp, *np;
1873:source\fatfs/ff.c **** 	WCHAR pc, nc;
1874:source\fatfs/ff.c **** 	int nm, nx;
1875:source\fatfs/ff.c **** 
1876:source\fatfs/ff.c **** 
1877:source\fatfs/ff.c **** 	while (skip--) {				/* Pre-skip name chars */
1878:source\fatfs/ff.c **** 		if (!get_achar(&nam)) return 0;	/* Branch mismatched if less name chars */
1879:source\fatfs/ff.c **** 	}
1880:source\fatfs/ff.c **** 	if (!*pat && inf) return 1;		/* (short circuit) */
1881:source\fatfs/ff.c **** 
1882:source\fatfs/ff.c **** 	do {
1883:source\fatfs/ff.c **** 		pp = pat; np = nam;			/* Top of pattern and name to match */
1884:source\fatfs/ff.c **** 		for (;;) {
1885:source\fatfs/ff.c **** 			if (*pp == '?' || *pp == '*') {	/* Wildcard? */
1886:source\fatfs/ff.c **** 				nm = nx = 0;
1887:source\fatfs/ff.c **** 				do {				/* Analyze the wildcard chars */
1888:source\fatfs/ff.c **** 					if (*pp++ == '?') nm++; else nx = 1;
1889:source\fatfs/ff.c **** 				} while (*pp == '?' || *pp == '*');
1890:source\fatfs/ff.c **** 				if (pattern_matching(pp, np, nm, nx)) return 1;	/* Test new branch (recurs upto number of wildc
1891:source\fatfs/ff.c **** 				nc = *np; break;	/* Branch mismatched */
1892:source\fatfs/ff.c **** 			}
1893:source\fatfs/ff.c **** 			pc = get_achar(&pp);	/* Get a pattern char */
1894:source\fatfs/ff.c **** 			nc = get_achar(&np);	/* Get a name char */
1895:source\fatfs/ff.c **** 			if (pc != nc) break;	/* Branch mismatched? */
1896:source\fatfs/ff.c **** 			if (!pc) return 1;		/* Branch matched? (matched at end of both strings) */
1897:source\fatfs/ff.c **** 		}
1898:source\fatfs/ff.c **** 		get_achar(&nam);			/* nam++ */
1899:source\fatfs/ff.c **** 	} while (inf && nc);			/* Retry until end of name if infinite search is specified */
1900:source\fatfs/ff.c **** 
1901:source\fatfs/ff.c **** 	return 0;
1902:source\fatfs/ff.c **** }
1903:source\fatfs/ff.c **** #endif /* _USE_FIND && _FS_MINIMIZE <= 1 */
1904:source\fatfs/ff.c **** 
1905:source\fatfs/ff.c **** 
1906:source\fatfs/ff.c **** 
1907:source\fatfs/ff.c **** 
1908:source\fatfs/ff.c **** /*-----------------------------------------------------------------------*/
1909:source\fatfs/ff.c **** /* Pick a segment and create the object name in directory form           */
1910:source\fatfs/ff.c **** /*-----------------------------------------------------------------------*/
1911:source\fatfs/ff.c **** 
1912:source\fatfs/ff.c **** static
1913:source\fatfs/ff.c **** FRESULT create_name (
1914:source\fatfs/ff.c **** 	DIR* dp,			/* Pointer to the directory object */
1915:source\fatfs/ff.c **** 	const TCHAR** path	/* Pointer to pointer to the segment in the path string */
1916:source\fatfs/ff.c **** )
1917:source\fatfs/ff.c **** {
1918:source\fatfs/ff.c **** #if _USE_LFN	/* LFN configuration */
1919:source\fatfs/ff.c **** 	BYTE b, cf;
1920:source\fatfs/ff.c **** 	WCHAR w, *lfn;
1921:source\fatfs/ff.c **** 	UINT i, ni, si, di;
1922:source\fatfs/ff.c **** 	const TCHAR *p;
1923:source\fatfs/ff.c **** 
1924:source\fatfs/ff.c **** 	/* Create LFN in Unicode */
1925:source\fatfs/ff.c **** 	for (p = *path; *p == '/' || *p == '\\'; p++) ;	/* Strip duplicated separator */
1926:source\fatfs/ff.c **** 	lfn = dp->lfn;
1927:source\fatfs/ff.c **** 	si = di = 0;
1928:source\fatfs/ff.c **** 	for (;;) {
1929:source\fatfs/ff.c **** 		w = p[si++];					/* Get a character */
1930:source\fatfs/ff.c **** 		if (w < ' ' || w == '/' || w == '\\') break;	/* Break on end of segment */
1931:source\fatfs/ff.c **** 		if (di >= _MAX_LFN)				/* Reject too long name */
1932:source\fatfs/ff.c **** 			return FR_INVALID_NAME;
1933:source\fatfs/ff.c **** #if !_LFN_UNICODE
1934:source\fatfs/ff.c **** 		w &= 0xFF;
1935:source\fatfs/ff.c **** 		if (IsDBCS1(w)) {				/* Check if it is a DBC 1st byte (always false on SBCS cfg) */
1936:source\fatfs/ff.c **** #if _DF1S
1937:source\fatfs/ff.c **** 			b = (BYTE)p[si++];			/* Get 2nd byte */
1938:source\fatfs/ff.c **** 			w = (w << 8) + b;			/* Create a DBC */
1939:source\fatfs/ff.c **** 			if (!IsDBCS2(b))
1940:source\fatfs/ff.c **** 				return FR_INVALID_NAME;	/* Reject invalid sequence */
1941:source\fatfs/ff.c **** #endif
1942:source\fatfs/ff.c **** 		}
1943:source\fatfs/ff.c **** 		w = ff_convert(w, 1);			/* Convert ANSI/OEM to Unicode */
1944:source\fatfs/ff.c **** 		if (!w) return FR_INVALID_NAME;	/* Reject invalid code */
1945:source\fatfs/ff.c **** #endif
1946:source\fatfs/ff.c **** 		if (w < 0x80 && chk_chr("\"*:<>\?|\x7F", w)) /* Reject illegal characters for LFN */
1947:source\fatfs/ff.c **** 			return FR_INVALID_NAME;
1948:source\fatfs/ff.c **** 		lfn[di++] = w;					/* Store the Unicode character */
1949:source\fatfs/ff.c **** 	}
1950:source\fatfs/ff.c **** 	*path = &p[si];						/* Return pointer to the next segment */
1951:source\fatfs/ff.c **** 	cf = (w < ' ') ? NS_LAST : 0;		/* Set last segment flag if end of path */
1952:source\fatfs/ff.c **** #if _FS_RPATH
1953:source\fatfs/ff.c **** 	if ((di == 1 && lfn[di - 1] == '.') || /* Is this a dot entry? */
1954:source\fatfs/ff.c **** 		(di == 2 && lfn[di - 1] == '.' && lfn[di - 2] == '.')) {
1955:source\fatfs/ff.c **** 		lfn[di] = 0;
1956:source\fatfs/ff.c **** 		for (i = 0; i < 11; i++)
1957:source\fatfs/ff.c **** 			dp->fn[i] = (i < di) ? '.' : ' ';
1958:source\fatfs/ff.c **** 		dp->fn[i] = cf | NS_DOT;		/* This is a dot entry */
1959:source\fatfs/ff.c **** 		return FR_OK;
1960:source\fatfs/ff.c **** 	}
1961:source\fatfs/ff.c **** #endif
1962:source\fatfs/ff.c **** 	while (di) {						/* Strip trailing spaces and dots */
1963:source\fatfs/ff.c **** 		w = lfn[di - 1];
1964:source\fatfs/ff.c **** 		if (w != ' ' && w != '.') break;
1965:source\fatfs/ff.c **** 		di--;
1966:source\fatfs/ff.c **** 	}
1967:source\fatfs/ff.c **** 	if (!di) return FR_INVALID_NAME;	/* Reject nul string */
1968:source\fatfs/ff.c **** 
1969:source\fatfs/ff.c **** 	lfn[di] = 0;						/* LFN is created */
1970:source\fatfs/ff.c **** 
1971:source\fatfs/ff.c **** 	/* Create SFN in directory form */
1972:source\fatfs/ff.c **** 	mem_set(dp->fn, ' ', 11);
1973:source\fatfs/ff.c **** 	for (si = 0; lfn[si] == ' ' || lfn[si] == '.'; si++) ;	/* Strip leading spaces and dots */
1974:source\fatfs/ff.c **** 	if (si) cf |= NS_LOSS | NS_LFN;
1975:source\fatfs/ff.c **** 	while (di && lfn[di - 1] != '.') di--;	/* Find extension (di<=si: no extension) */
1976:source\fatfs/ff.c **** 
1977:source\fatfs/ff.c **** 	b = i = 0; ni = 8;
1978:source\fatfs/ff.c **** 	for (;;) {
1979:source\fatfs/ff.c **** 		w = lfn[si++];					/* Get an LFN character */
1980:source\fatfs/ff.c **** 		if (!w) break;					/* Break on end of the LFN */
1981:source\fatfs/ff.c **** 		if (w == ' ' || (w == '.' && si != di)) {	/* Remove spaces and dots */
1982:source\fatfs/ff.c **** 			cf |= NS_LOSS | NS_LFN; continue;
1983:source\fatfs/ff.c **** 		}
1984:source\fatfs/ff.c **** 
1985:source\fatfs/ff.c **** 		if (i >= ni || si == di) {		/* Extension or end of SFN */
1986:source\fatfs/ff.c **** 			if (ni == 11) {				/* Long extension */
1987:source\fatfs/ff.c **** 				cf |= NS_LOSS | NS_LFN; break;
1988:source\fatfs/ff.c **** 			}
1989:source\fatfs/ff.c **** 			if (si != di) cf |= NS_LOSS | NS_LFN;	/* Out of 8.3 format */
1990:source\fatfs/ff.c **** 			if (si > di) break;			/* No extension */
1991:source\fatfs/ff.c **** 			si = di; i = 8; ni = 11;	/* Enter extension section */
1992:source\fatfs/ff.c **** 			b <<= 2; continue;
1993:source\fatfs/ff.c **** 		}
1994:source\fatfs/ff.c **** 
1995:source\fatfs/ff.c **** 		if (w >= 0x80) {				/* Non ASCII character */
1996:source\fatfs/ff.c **** #ifdef _EXCVT
1997:source\fatfs/ff.c **** 			w = ff_convert(w, 0);		/* Unicode -> OEM code */
1998:source\fatfs/ff.c **** 			if (w) w = ExCvt[w - 0x80];	/* Convert extended character to upper (SBCS) */
1999:source\fatfs/ff.c **** #else
2000:source\fatfs/ff.c **** 			w = ff_convert(ff_wtoupper(w), 0);	/* Upper converted Unicode -> OEM code */
2001:source\fatfs/ff.c **** #endif
2002:source\fatfs/ff.c **** 			cf |= NS_LFN;				/* Force create LFN entry */
2003:source\fatfs/ff.c **** 		}
2004:source\fatfs/ff.c **** 
2005:source\fatfs/ff.c **** 		if (_DF1S && w >= 0x100) {		/* DBC (always false at SBCS cfg) */
2006:source\fatfs/ff.c **** 			if (i >= ni - 1) {
2007:source\fatfs/ff.c **** 				cf |= NS_LOSS | NS_LFN; i = ni; continue;
2008:source\fatfs/ff.c **** 			}
2009:source\fatfs/ff.c **** 			dp->fn[i++] = (BYTE)(w >> 8);
2010:source\fatfs/ff.c **** 		} else {						/* SBC */
2011:source\fatfs/ff.c **** 			if (!w || chk_chr("+,;=[]", w)) {	/* Replace illegal characters for SFN */
2012:source\fatfs/ff.c **** 				w = '_'; cf |= NS_LOSS | NS_LFN;/* Lossy conversion */
2013:source\fatfs/ff.c **** 			} else {
2014:source\fatfs/ff.c **** 				if (IsUpper(w)) {		/* ASCII large capital */
2015:source\fatfs/ff.c **** 					b |= 2;
2016:source\fatfs/ff.c **** 				} else {
2017:source\fatfs/ff.c **** 					if (IsLower(w)) {	/* ASCII small capital */
2018:source\fatfs/ff.c **** 						b |= 1; w -= 0x20;
2019:source\fatfs/ff.c **** 					}
2020:source\fatfs/ff.c **** 				}
2021:source\fatfs/ff.c **** 			}
2022:source\fatfs/ff.c **** 		}
2023:source\fatfs/ff.c **** 		dp->fn[i++] = (BYTE)w;
2024:source\fatfs/ff.c **** 	}
2025:source\fatfs/ff.c **** 
2026:source\fatfs/ff.c **** 	if (dp->fn[0] == DDEM) dp->fn[0] = RDDEM;	/* If the first character collides with deleted mark, re
2027:source\fatfs/ff.c **** 
2028:source\fatfs/ff.c **** 	if (ni == 8) b <<= 2;
2029:source\fatfs/ff.c **** 	if ((b & 0x0C) == 0x0C || (b & 0x03) == 0x03)	/* Create LFN entry when there are composite capital
2030:source\fatfs/ff.c **** 		cf |= NS_LFN;
2031:source\fatfs/ff.c **** 	if (!(cf & NS_LFN)) {						/* When LFN is in 8.3 format without extended character, NT flags are c
2032:source\fatfs/ff.c **** 		if ((b & 0x03) == 0x01) cf |= NS_EXT;	/* NT flag (Extension has only small capital) */
2033:source\fatfs/ff.c **** 		if ((b & 0x0C) == 0x04) cf |= NS_BODY;	/* NT flag (Filename has only small capital) */
2034:source\fatfs/ff.c **** 	}
2035:source\fatfs/ff.c **** 
2036:source\fatfs/ff.c **** 	dp->fn[NSFLAG] = cf;	/* SFN is created */
2037:source\fatfs/ff.c **** 
2038:source\fatfs/ff.c **** 	return FR_OK;
2039:source\fatfs/ff.c **** 
2040:source\fatfs/ff.c **** 
2041:source\fatfs/ff.c **** #else	/* Non-LFN configuration */
2042:source\fatfs/ff.c **** 	BYTE b, c, d, *sfn;
2043:source\fatfs/ff.c **** 	UINT ni, si, i;
2044:source\fatfs/ff.c **** 	const char *p;
2045:source\fatfs/ff.c **** 
2046:source\fatfs/ff.c **** 	/* Create file name in directory form */
2047:source\fatfs/ff.c **** 	for (p = *path; *p == '/' || *p == '\\'; p++) ;	/* Strip duplicated separator */
2048:source\fatfs/ff.c **** 	sfn = dp->fn;
2049:source\fatfs/ff.c **** 	mem_set(sfn, ' ', 11);
2050:source\fatfs/ff.c **** 	si = i = b = 0; ni = 8;
2051:source\fatfs/ff.c **** #if _FS_RPATH
2052:source\fatfs/ff.c **** 	if (p[si] == '.') { /* Is this a dot entry? */
2053:source\fatfs/ff.c **** 		for (;;) {
2054:source\fatfs/ff.c **** 			c = (BYTE)p[si++];
2055:source\fatfs/ff.c **** 			if (c != '.' || si >= 3) break;
2056:source\fatfs/ff.c **** 			sfn[i++] = c;
2057:source\fatfs/ff.c **** 		}
2058:source\fatfs/ff.c **** 		if (c != '/' && c != '\\' && c > ' ') return FR_INVALID_NAME;
2059:source\fatfs/ff.c **** 		*path = &p[si];									/* Return pointer to the next segment */
2060:source\fatfs/ff.c **** 		sfn[NSFLAG] = (c <= ' ') ? NS_LAST | NS_DOT : NS_DOT;	/* Set last segment flag if end of path */
2061:source\fatfs/ff.c **** 		return FR_OK;
2062:source\fatfs/ff.c **** 	}
2063:source\fatfs/ff.c **** #endif
2064:source\fatfs/ff.c **** 	for (;;) {
2065:source\fatfs/ff.c **** 		c = (BYTE)p[si++];
2066:source\fatfs/ff.c **** 		if (c <= ' ' || c == '/' || c == '\\') break;	/* Break on end of segment */
2067:source\fatfs/ff.c **** 		if (c == '.' || i >= ni) {
2068:source\fatfs/ff.c **** 			if (ni != 8 || c != '.') return FR_INVALID_NAME;
2069:source\fatfs/ff.c **** 			i = 8; ni = 11;
2070:source\fatfs/ff.c **** 			b <<= 2; continue;
2071:source\fatfs/ff.c **** 		}
2072:source\fatfs/ff.c **** 		if (c >= 0x80) {				/* Extended character? */
2073:source\fatfs/ff.c **** 			b |= 3;						/* Eliminate NT flag */
2074:source\fatfs/ff.c **** #ifdef _EXCVT
2075:source\fatfs/ff.c **** 			c = ExCvt[c - 0x80];		/* To upper extended characters (SBCS cfg) */
2076:source\fatfs/ff.c **** #else
2077:source\fatfs/ff.c **** #if !_DF1S
2078:source\fatfs/ff.c **** 			return FR_INVALID_NAME;		/* Reject extended characters (ASCII cfg) */
2079:source\fatfs/ff.c **** #endif
2080:source\fatfs/ff.c **** #endif
2081:source\fatfs/ff.c **** 		}
2082:source\fatfs/ff.c **** 		if (IsDBCS1(c)) {				/* Check if it is a DBC 1st byte (always false on SBCS cfg) */
2083:source\fatfs/ff.c **** 			d = (BYTE)p[si++];			/* Get 2nd byte */
2084:source\fatfs/ff.c **** 			if (!IsDBCS2(d) || i >= ni - 1)	/* Reject invalid DBC */
2085:source\fatfs/ff.c **** 				return FR_INVALID_NAME;
2086:source\fatfs/ff.c **** 			sfn[i++] = c;
2087:source\fatfs/ff.c **** 			sfn[i++] = d;
2088:source\fatfs/ff.c **** 		} else {						/* SBC */
2089:source\fatfs/ff.c **** 			if (chk_chr("\"*+,:;<=>\?[]|\x7F", c))	/* Reject illegal chrs for SFN */
2090:source\fatfs/ff.c **** 				return FR_INVALID_NAME;
2091:source\fatfs/ff.c **** 			if (IsUpper(c)) {			/* ASCII large capital? */
2092:source\fatfs/ff.c **** 				b |= 2;
2093:source\fatfs/ff.c **** 			} else {
2094:source\fatfs/ff.c **** 				if (IsLower(c)) {		/* ASCII small capital? */
2095:source\fatfs/ff.c **** 					b |= 1; c -= 0x20;
2096:source\fatfs/ff.c **** 				}
2097:source\fatfs/ff.c **** 			}
2098:source\fatfs/ff.c **** 			sfn[i++] = c;
2099:source\fatfs/ff.c **** 		}
2100:source\fatfs/ff.c **** 	}
2101:source\fatfs/ff.c **** 	*path = &p[si];						/* Return pointer to the next segment */
2102:source\fatfs/ff.c **** 	c = (c <= ' ') ? NS_LAST : 0;		/* Set last segment flag if end of path */
2103:source\fatfs/ff.c **** 
2104:source\fatfs/ff.c **** 	if (!i) return FR_INVALID_NAME;		/* Reject nul string */
2105:source\fatfs/ff.c **** 	if (sfn[0] == DDEM) sfn[0] = RDDEM;	/* When first character collides with DDEM, replace it with RD
2106:source\fatfs/ff.c **** 
2107:source\fatfs/ff.c **** 	if (ni == 8) b <<= 2;
2108:source\fatfs/ff.c **** 	if ((b & 0x03) == 0x01) c |= NS_EXT;	/* NT flag (Name extension has only small capital) */
2109:source\fatfs/ff.c **** 	if ((b & 0x0C) == 0x04) c |= NS_BODY;	/* NT flag (Name body has only small capital) */
2110:source\fatfs/ff.c **** 
2111:source\fatfs/ff.c **** 	sfn[NSFLAG] = c;		/* Store NT flag, File name is created */
2112:source\fatfs/ff.c **** 
2113:source\fatfs/ff.c **** 	return FR_OK;
2114:source\fatfs/ff.c **** #endif
2115:source\fatfs/ff.c **** }
2116:source\fatfs/ff.c **** 
2117:source\fatfs/ff.c **** 
2118:source\fatfs/ff.c **** 
2119:source\fatfs/ff.c **** 
2120:source\fatfs/ff.c **** /*-----------------------------------------------------------------------*/
2121:source\fatfs/ff.c **** /* Follow a file path                                                    */
2122:source\fatfs/ff.c **** /*-----------------------------------------------------------------------*/
2123:source\fatfs/ff.c **** 
2124:source\fatfs/ff.c **** static
2125:source\fatfs/ff.c **** FRESULT follow_path (	/* FR_OK(0): successful, !=0: error code */
2126:source\fatfs/ff.c **** 	DIR* dp,			/* Directory object to return last directory and found object */
2127:source\fatfs/ff.c **** 	const TCHAR* path	/* Full-path string to find a file or directory */
2128:source\fatfs/ff.c **** )
2129:source\fatfs/ff.c **** {
2130:source\fatfs/ff.c **** 	FRESULT res;
2131:source\fatfs/ff.c **** 	BYTE *dir, ns;
2132:source\fatfs/ff.c **** 
2133:source\fatfs/ff.c **** 
2134:source\fatfs/ff.c **** #if _FS_RPATH
2135:source\fatfs/ff.c **** 	if (*path == '/' || *path == '\\') {	/* There is a heading separator */
2136:source\fatfs/ff.c **** 		path++;	dp->sclust = 0;				/* Strip it and start from the root directory */
2137:source\fatfs/ff.c **** 	} else {								/* No heading separator */
2138:source\fatfs/ff.c **** 		dp->sclust = dp->fs->cdir;			/* Start from the current directory */
2139:source\fatfs/ff.c **** 	}
2140:source\fatfs/ff.c **** #else
2141:source\fatfs/ff.c **** 	if (*path == '/' || *path == '\\')		/* Strip heading separator if exist */
2142:source\fatfs/ff.c **** 		path++;
2143:source\fatfs/ff.c **** 	dp->sclust = 0;							/* Always start from the root directory */
2144:source\fatfs/ff.c **** #endif
2145:source\fatfs/ff.c **** 
2146:source\fatfs/ff.c **** 	if ((UINT)*path < ' ') {				/* Null path name is the origin directory itself */
2147:source\fatfs/ff.c **** 		res = dir_sdi(dp, 0);
2148:source\fatfs/ff.c **** 		dp->dir = 0;
2149:source\fatfs/ff.c **** 	} else {								/* Follow path */
2150:source\fatfs/ff.c **** 		for (;;) {
2151:source\fatfs/ff.c **** 			res = create_name(dp, &path);	/* Get a segment name of the path */
2152:source\fatfs/ff.c **** 			if (res != FR_OK) break;
2153:source\fatfs/ff.c **** 			res = dir_find(dp);				/* Find an object with the sagment name */
2154:source\fatfs/ff.c **** 			ns = dp->fn[NSFLAG];
2155:source\fatfs/ff.c **** 			if (res != FR_OK) {				/* Failed to find the object */
2156:source\fatfs/ff.c **** 				if (res == FR_NO_FILE) {	/* Object is not found */
2157:source\fatfs/ff.c **** 					if (_FS_RPATH && (ns & NS_DOT)) {	/* If dot entry is not exist, */
2158:source\fatfs/ff.c **** 						dp->sclust = 0; dp->dir = 0;	/* it is the root directory and stay there */
2159:source\fatfs/ff.c **** 						if (!(ns & NS_LAST)) continue;	/* Continue to follow if not last segment */
2160:source\fatfs/ff.c **** 						res = FR_OK;					/* Ended at the root directroy. Function completed. */
2161:source\fatfs/ff.c **** 					} else {							/* Could not find the object */
2162:source\fatfs/ff.c **** 						if (!(ns & NS_LAST)) res = FR_NO_PATH;	/* Adjust error code if not last segment */
2163:source\fatfs/ff.c **** 					}
2164:source\fatfs/ff.c **** 				}
2165:source\fatfs/ff.c **** 				break;
2166:source\fatfs/ff.c **** 			}
2167:source\fatfs/ff.c **** 			if (ns & NS_LAST) break;			/* Last segment matched. Function completed. */
2168:source\fatfs/ff.c **** 			dir = dp->dir;						/* Follow the sub-directory */
2169:source\fatfs/ff.c **** 			if (!(dir[DIR_Attr] & AM_DIR)) {	/* It is not a sub-directory and cannot follow */
2170:source\fatfs/ff.c **** 				res = FR_NO_PATH; break;
2171:source\fatfs/ff.c **** 			}
2172:source\fatfs/ff.c **** 			dp->sclust = ld_clust(dp->fs, dir);
2173:source\fatfs/ff.c **** 		}
2174:source\fatfs/ff.c **** 	}
2175:source\fatfs/ff.c **** 
2176:source\fatfs/ff.c **** 	return res;
2177:source\fatfs/ff.c **** }
2178:source\fatfs/ff.c **** 
2179:source\fatfs/ff.c **** 
2180:source\fatfs/ff.c **** 
2181:source\fatfs/ff.c **** 
2182:source\fatfs/ff.c **** /*-----------------------------------------------------------------------*/
2183:source\fatfs/ff.c **** /* Get logical drive number from path name                               */
2184:source\fatfs/ff.c **** /*-----------------------------------------------------------------------*/
2185:source\fatfs/ff.c **** 
2186:source\fatfs/ff.c **** static
2187:source\fatfs/ff.c **** int get_ldnumber (		/* Returns logical drive number (-1:invalid drive) */
2188:source\fatfs/ff.c **** 	const TCHAR** path	/* Pointer to pointer to the path name */
2189:source\fatfs/ff.c **** )
2190:source\fatfs/ff.c **** {
 684              		.loc 1 2190 1 is_stmt 1 view -0
 685              		.cfi_startproc
 686              		@ args = 0, pretend = 0, frame = 0
 687              		@ frame_needed = 0, uses_anonymous_args = 0
2191:source\fatfs/ff.c **** 	const TCHAR *tp, *tt;
 688              		.loc 1 2191 2 view .LVU215
2192:source\fatfs/ff.c **** 	UINT i;
 689              		.loc 1 2192 2 view .LVU216
2193:source\fatfs/ff.c **** 	int vol = -1;
 690              		.loc 1 2193 2 view .LVU217
2194:source\fatfs/ff.c **** #if _STR_VOLUME_ID		/* Find string drive id */
2195:source\fatfs/ff.c **** 	static const char* const str[] = {_VOLUME_STRS};
2196:source\fatfs/ff.c **** 	const char *sp;
2197:source\fatfs/ff.c **** 	char c;
2198:source\fatfs/ff.c **** 	TCHAR tc;
2199:source\fatfs/ff.c **** #endif
2200:source\fatfs/ff.c **** 
2201:source\fatfs/ff.c **** 
2202:source\fatfs/ff.c **** 	if (*path) {	/* If the pointer is not a null */
 691              		.loc 1 2202 2 view .LVU218
 692              		.loc 1 2202 6 is_stmt 0 view .LVU219
 693 0000 0368     		ldr	r3, [r0]
2190:source\fatfs/ff.c **** 	const TCHAR *tp, *tt;
 694              		.loc 1 2190 1 view .LVU220
 695 0002 10B5     		push	{r4, lr}
 696              		.cfi_def_cfa_offset 8
 697              		.cfi_offset 4, -8
 698              		.cfi_offset 14, -4
2190:source\fatfs/ff.c **** 	const TCHAR *tp, *tt;
 699              		.loc 1 2190 1 view .LVU221
 700 0004 0146     		mov	r1, r0
 701              		.loc 1 2202 5 view .LVU222
 702 0006 53B1     		cbz	r3, .L84
 703 0008 1846     		mov	r0, r3
 704              	.LVL69:
 705              	.L76:
 706              		.loc 1 2202 5 view .LVU223
 707 000a 0246     		mov	r2, r0
 708              	.LVL70:
2203:source\fatfs/ff.c **** 		for (tt = *path; (UINT)*tt >= (_USE_LFN ? ' ' : '!') && *tt != ':'; tt++) ;	/* Find ':' in the pa
 709              		.loc 1 2203 20 is_stmt 1 discriminator 1 view .LVU224
 710              		.loc 1 2203 26 is_stmt 0 discriminator 1 view .LVU225
 711 000c 10F8014B 		ldrb	r4, [r0], #1	@ zero_extendqisi2
 712              	.LVL71:
 713              		.loc 1 2203 3 discriminator 1 view .LVU226
 714 0010 1F2C     		cmp	r4, #31
 715 0012 10D9     		bls	.L80
 716              		.loc 1 2203 56 discriminator 3 view .LVU227
 717 0014 3A2C     		cmp	r4, #58
 718 0016 F8D1     		bne	.L76
2204:source\fatfs/ff.c **** 		if (*tt == ':') {	/* If a ':' is exist in the path name */
 719              		.loc 1 2204 3 is_stmt 1 view .LVU228
2205:source\fatfs/ff.c **** 			tp = *path;
 720              		.loc 1 2205 4 view .LVU229
 721              	.LVL72:
2206:source\fatfs/ff.c **** 			i = *tp++ - '0'; 
 722              		.loc 1 2206 4 view .LVU230
2207:source\fatfs/ff.c **** 			if (i < 10 && tp == tt) {	/* Is there a numeric drive id? */
 723              		.loc 1 2207 4 view .LVU231
2206:source\fatfs/ff.c **** 			i = *tp++ - '0'; 
 724              		.loc 1 2206 11 is_stmt 0 view .LVU232
 725 0018 581C     		adds	r0, r3, #1
 726              	.LVL73:
 727              		.loc 1 2207 15 view .LVU233
 728 001a 8242     		cmp	r2, r0
 729 001c 02D0     		beq	.L78
 730              	.LVL74:
 731              	.L84:
2193:source\fatfs/ff.c **** #if _STR_VOLUME_ID		/* Find string drive id */
 732              		.loc 1 2193 6 view .LVU234
 733 001e 4FF0FF30 		mov	r0, #-1
 734 0022 07E0     		b	.L74
 735              	.LVL75:
 736              	.L78:
2206:source\fatfs/ff.c **** 			i = *tp++ - '0'; 
 737              		.loc 1 2206 8 view .LVU235
 738 0024 1B78     		ldrb	r3, [r3]	@ zero_extendqisi2
 739              	.LVL76:
2208:source\fatfs/ff.c **** 				if (i < _VOLUMES) {	/* If a drive id is found, get the value and strip it */
 740              		.loc 1 2208 5 is_stmt 1 view .LVU236
 741              		.loc 1 2208 8 is_stmt 0 view .LVU237
 742 0026 303B     		subs	r3, r3, #48
 743 0028 D8B2     		uxtb	r0, r3
 744              	.LVL77:
 745              		.loc 1 2208 8 view .LVU238
 746 002a 0228     		cmp	r0, #2
 747 002c F7D8     		bhi	.L84
2209:source\fatfs/ff.c **** 					vol = (int)i;
2210:source\fatfs/ff.c **** 					*path = ++tt;
 748              		.loc 1 2210 12 view .LVU239
 749 002e 0132     		adds	r2, r2, #1
 750              	.LVL78:
2206:source\fatfs/ff.c **** 			if (i < 10 && tp == tt) {	/* Is there a numeric drive id? */
 751              		.loc 1 2206 14 view .LVU240
 752 0030 1846     		mov	r0, r3
2209:source\fatfs/ff.c **** 					vol = (int)i;
 753              		.loc 1 2209 6 is_stmt 1 view .LVU241
 754              	.LVL79:
 755              		.loc 1 2210 6 view .LVU242
 756              		.loc 1 2210 12 is_stmt 0 view .LVU243
 757 0032 0A60     		str	r2, [r1]
 758              	.LVL80:
 759              	.L74:
2211:source\fatfs/ff.c **** 				}
2212:source\fatfs/ff.c **** 			}
2213:source\fatfs/ff.c **** #if _STR_VOLUME_ID
2214:source\fatfs/ff.c **** 			 else {	/* No numeric drive number, find string drive id */
2215:source\fatfs/ff.c **** 				i = 0; tt++;
2216:source\fatfs/ff.c **** 				do {
2217:source\fatfs/ff.c **** 					sp = str[i]; tp = *path;
2218:source\fatfs/ff.c **** 					do {	/* Compare a string drive id with path name */
2219:source\fatfs/ff.c **** 						c = *sp++; tc = *tp++;
2220:source\fatfs/ff.c **** 						if (IsLower(tc)) tc -= 0x20;
2221:source\fatfs/ff.c **** 					} while (c && (TCHAR)c == tc);
2222:source\fatfs/ff.c **** 				} while ((c || tp != tt) && ++i < _VOLUMES);	/* Repeat for each id until pattern match */
2223:source\fatfs/ff.c **** 				if (i < _VOLUMES) {	/* If a drive id is found, get the value and strip it */
2224:source\fatfs/ff.c **** 					vol = (int)i;
2225:source\fatfs/ff.c **** 					*path = tt;
2226:source\fatfs/ff.c **** 				}
2227:source\fatfs/ff.c **** 			}
2228:source\fatfs/ff.c **** #endif
2229:source\fatfs/ff.c **** 			return vol;
2230:source\fatfs/ff.c **** 		}
2231:source\fatfs/ff.c **** #if _FS_RPATH && _VOLUMES >= 2
2232:source\fatfs/ff.c **** 		vol = CurrVol;	/* Current drive */
2233:source\fatfs/ff.c **** #else
2234:source\fatfs/ff.c **** 		vol = 0;		/* Drive 0 */
2235:source\fatfs/ff.c **** #endif
2236:source\fatfs/ff.c **** 	}
2237:source\fatfs/ff.c **** 	return vol;
2238:source\fatfs/ff.c **** }
 760              		.loc 1 2238 1 view .LVU244
 761 0034 10BD     		pop	{r4, pc}
 762              	.LVL81:
 763              	.L80:
2234:source\fatfs/ff.c **** #endif
 764              		.loc 1 2234 7 view .LVU245
 765 0036 0020     		movs	r0, #0
 766 0038 FCE7     		b	.L74
 767              		.cfi_endproc
 768              	.LFE165:
 770              		.section	.text.validate,"ax",%progbits
 771              		.align	1
 772              		.syntax unified
 773              		.thumb
 774              		.thumb_func
 776              	validate:
 777              	.LVL82:
 778              	.LFB168:
2239:source\fatfs/ff.c **** 
2240:source\fatfs/ff.c **** 
2241:source\fatfs/ff.c **** 
2242:source\fatfs/ff.c **** 
2243:source\fatfs/ff.c **** /*-----------------------------------------------------------------------*/
2244:source\fatfs/ff.c **** /* Load a sector and check if it is an FAT boot sector                   */
2245:source\fatfs/ff.c **** /*-----------------------------------------------------------------------*/
2246:source\fatfs/ff.c **** 
2247:source\fatfs/ff.c **** static
2248:source\fatfs/ff.c **** BYTE check_fs (	/* 0:FAT boor sector, 1:Valid boor sector but not FAT, 2:Not a boot sector, 3:Disk 
2249:source\fatfs/ff.c **** 	FATFS* fs,	/* File system object */
2250:source\fatfs/ff.c **** 	DWORD sect	/* Sector# (lba) to check if it is an FAT boot record or not */
2251:source\fatfs/ff.c **** )
2252:source\fatfs/ff.c **** {
2253:source\fatfs/ff.c **** 	fs->wflag = 0; fs->winsect = 0xFFFFFFFF;	/* Invaidate window */
2254:source\fatfs/ff.c **** 	if (move_window(fs, sect) != FR_OK)			/* Load boot record */
2255:source\fatfs/ff.c **** 		return 3;
2256:source\fatfs/ff.c **** 
2257:source\fatfs/ff.c **** 	if (LD_WORD(&fs->win.d8[BS_55AA]) != 0xAA55)	/* Check boot record signature (always placed at offs
2258:source\fatfs/ff.c **** 		return 2;
2259:source\fatfs/ff.c **** 
2260:source\fatfs/ff.c **** 	if ((LD_DWORD(&fs->win.d8[BS_FilSysType]) & 0xFFFFFF) == 0x544146)		/* Check "FAT" string */
2261:source\fatfs/ff.c **** 		return 0;
2262:source\fatfs/ff.c **** 	if ((LD_DWORD(&fs->win.d8[BS_FilSysType32]) & 0xFFFFFF) == 0x544146)	/* Check "FAT" string */
2263:source\fatfs/ff.c **** 		return 0;
2264:source\fatfs/ff.c **** 
2265:source\fatfs/ff.c **** 	return 1;
2266:source\fatfs/ff.c **** }
2267:source\fatfs/ff.c **** 
2268:source\fatfs/ff.c **** 
2269:source\fatfs/ff.c **** 
2270:source\fatfs/ff.c **** 
2271:source\fatfs/ff.c **** /*-----------------------------------------------------------------------*/
2272:source\fatfs/ff.c **** /* Find logical drive and check if the volume is mounted                 */
2273:source\fatfs/ff.c **** /*-----------------------------------------------------------------------*/
2274:source\fatfs/ff.c **** 
2275:source\fatfs/ff.c **** static
2276:source\fatfs/ff.c **** FRESULT find_volume (	/* FR_OK(0): successful, !=0: any error occurred */
2277:source\fatfs/ff.c **** 	FATFS** rfs,		/* Pointer to pointer to the found file system object */
2278:source\fatfs/ff.c **** 	const TCHAR** path,	/* Pointer to pointer to the path name (drive number) */
2279:source\fatfs/ff.c **** 	BYTE wmode			/* !=0: Check write protection for write access */
2280:source\fatfs/ff.c **** )
2281:source\fatfs/ff.c **** {
2282:source\fatfs/ff.c **** 	BYTE fmt, *pt;
2283:source\fatfs/ff.c **** 	int vol;
2284:source\fatfs/ff.c **** 	DSTATUS stat;
2285:source\fatfs/ff.c **** 	DWORD bsect, fasize, tsect, sysect, nclst, szbfat, br[4];
2286:source\fatfs/ff.c **** 	WORD nrsv;
2287:source\fatfs/ff.c **** 	FATFS *fs;
2288:source\fatfs/ff.c **** 	UINT i;
2289:source\fatfs/ff.c **** 
2290:source\fatfs/ff.c **** 
2291:source\fatfs/ff.c **** 	/* Get logical drive number from the path name */
2292:source\fatfs/ff.c **** 	*rfs = 0;
2293:source\fatfs/ff.c **** 	vol = get_ldnumber(path);
2294:source\fatfs/ff.c **** 	if (vol < 0) return FR_INVALID_DRIVE;
2295:source\fatfs/ff.c **** 
2296:source\fatfs/ff.c **** 	/* Check if the file system object is valid or not */
2297:source\fatfs/ff.c **** 	fs = FatFs[vol];					/* Get pointer to the file system object */
2298:source\fatfs/ff.c **** 	if (!fs) return FR_NOT_ENABLED;		/* Is the file system object available? */
2299:source\fatfs/ff.c **** 
2300:source\fatfs/ff.c **** 	ENTER_FF(fs);						/* Lock the volume */
2301:source\fatfs/ff.c **** 	*rfs = fs;							/* Return pointer to the file system object */
2302:source\fatfs/ff.c **** 
2303:source\fatfs/ff.c **** 	if (fs->fs_type) {					/* If the volume has been mounted */
2304:source\fatfs/ff.c **** 		stat = disk_status(fs->drv);
2305:source\fatfs/ff.c **** 		if (!(stat & STA_NOINIT)) {		/* and the physical drive is kept initialized */
2306:source\fatfs/ff.c **** 			if (!_FS_READONLY && wmode && (stat & STA_PROTECT))	/* Check write protection if needed */
2307:source\fatfs/ff.c **** 				return FR_WRITE_PROTECTED;
2308:source\fatfs/ff.c **** 			return FR_OK;				/* The file system object is valid */
2309:source\fatfs/ff.c **** 		}
2310:source\fatfs/ff.c **** 	}
2311:source\fatfs/ff.c **** 
2312:source\fatfs/ff.c **** 	/* The file system object is not valid. */
2313:source\fatfs/ff.c **** 	/* Following code attempts to mount the volume. (analyze BPB and initialize the fs object) */
2314:source\fatfs/ff.c **** 
2315:source\fatfs/ff.c **** 	fs->fs_type = 0;					/* Clear the file system object */
2316:source\fatfs/ff.c **** 	fs->drv = LD2PD(vol);				/* Bind the logical drive and a physical drive */
2317:source\fatfs/ff.c **** 	stat = disk_initialize(fs->drv);	/* Initialize the physical drive */
2318:source\fatfs/ff.c **** 	if (stat & STA_NOINIT)				/* Check if the initialization succeeded */
2319:source\fatfs/ff.c **** 		return FR_NOT_READY;			/* Failed to initialize due to no medium or hard error */
2320:source\fatfs/ff.c **** 	if (!_FS_READONLY && wmode && (stat & STA_PROTECT))	/* Check disk write protection if needed */
2321:source\fatfs/ff.c **** 		return FR_WRITE_PROTECTED;
2322:source\fatfs/ff.c **** #if _MAX_SS != _MIN_SS						/* Get sector size (multiple sector size cfg only) */
2323:source\fatfs/ff.c **** 	if (disk_ioctl(fs->drv, GET_SECTOR_SIZE, &SS(fs)) != RES_OK
2324:source\fatfs/ff.c **** 		|| SS(fs) < _MIN_SS || SS(fs) > _MAX_SS) return FR_DISK_ERR;
2325:source\fatfs/ff.c **** #endif
2326:source\fatfs/ff.c **** 	/* Find an FAT partition on the drive. Supports only generic partitioning, FDISK and SFD. */
2327:source\fatfs/ff.c **** 	bsect = 0;
2328:source\fatfs/ff.c **** 	fmt = check_fs(fs, bsect);					/* Load sector 0 and check if it is an FAT boot sector as SFD */
2329:source\fatfs/ff.c **** 	if (fmt == 1 || (!fmt && (LD2PT(vol)))) {	/* Not an FAT boot sector or forced partition number */
2330:source\fatfs/ff.c **** 		for (i = 0; i < 4; i++) {			/* Get partition offset */
2331:source\fatfs/ff.c **** 			pt = fs->win.d8 + MBR_Table + i * SZ_PTE;
2332:source\fatfs/ff.c **** 			br[i] = pt[4] ? LD_DWORD(&pt[8]) : 0;
2333:source\fatfs/ff.c **** 		}
2334:source\fatfs/ff.c **** 		i = LD2PT(vol);						/* Partition number: 0:auto, 1-4:forced */
2335:source\fatfs/ff.c **** 		if (i) i--;
2336:source\fatfs/ff.c **** 		do {								/* Find an FAT volume */
2337:source\fatfs/ff.c **** 			bsect = br[i];
2338:source\fatfs/ff.c **** 			fmt = bsect ? check_fs(fs, bsect) : 2;	/* Check the partition */
2339:source\fatfs/ff.c **** 		} while (!LD2PT(vol) && fmt && ++i < 4);
2340:source\fatfs/ff.c **** 	}
2341:source\fatfs/ff.c **** 	if (fmt == 3) return FR_DISK_ERR;		/* An error occured in the disk I/O layer */
2342:source\fatfs/ff.c **** 	if (fmt) return FR_NO_FILESYSTEM;		/* No FAT volume is found */
2343:source\fatfs/ff.c **** 
2344:source\fatfs/ff.c **** 	/* An FAT volume is found. Following code initializes the file system object */
2345:source\fatfs/ff.c **** 
2346:source\fatfs/ff.c **** 	if (LD_WORD(fs->win.d8 + BPB_BytsPerSec) != SS(fs))	/* (BPB_BytsPerSec must be equal to the physic
2347:source\fatfs/ff.c **** 		return FR_NO_FILESYSTEM;
2348:source\fatfs/ff.c **** 
2349:source\fatfs/ff.c **** 	fasize = LD_WORD(fs->win.d8 + BPB_FATSz16);			/* Number of sectors per FAT */
2350:source\fatfs/ff.c **** 	if (!fasize) fasize = LD_DWORD(fs->win.d8 + BPB_FATSz32);
2351:source\fatfs/ff.c **** 	fs->fsize = fasize;
2352:source\fatfs/ff.c **** 
2353:source\fatfs/ff.c **** 	fs->n_fats = fs->win.d8[BPB_NumFATs];					/* Number of FAT copies */
2354:source\fatfs/ff.c **** 	if (fs->n_fats != 1 && fs->n_fats != 2)				/* (Must be 1 or 2) */
2355:source\fatfs/ff.c **** 		return FR_NO_FILESYSTEM;
2356:source\fatfs/ff.c **** 	fasize *= fs->n_fats;								/* Number of sectors for FAT area */
2357:source\fatfs/ff.c **** 
2358:source\fatfs/ff.c **** 	fs->csize = fs->win.d8[BPB_SecPerClus];				/* Number of sectors per cluster */
2359:source\fatfs/ff.c **** 	if (!fs->csize || (fs->csize & (fs->csize - 1)))	/* (Must be power of 2) */
2360:source\fatfs/ff.c **** 		return FR_NO_FILESYSTEM;
2361:source\fatfs/ff.c **** 
2362:source\fatfs/ff.c **** 	fs->n_rootdir = LD_WORD(fs->win.d8 + BPB_RootEntCnt);	/* Number of root directory entries */
2363:source\fatfs/ff.c **** 	if (fs->n_rootdir % (SS(fs) / SZ_DIRE))				/* (Must be sector aligned) */
2364:source\fatfs/ff.c **** 		return FR_NO_FILESYSTEM;
2365:source\fatfs/ff.c **** 
2366:source\fatfs/ff.c **** 	tsect = LD_WORD(fs->win.d8 + BPB_TotSec16);			/* Number of sectors on the volume */
2367:source\fatfs/ff.c **** 	if (!tsect) tsect = LD_DWORD(fs->win.d8 + BPB_TotSec32);
2368:source\fatfs/ff.c **** 
2369:source\fatfs/ff.c **** 	nrsv = LD_WORD(fs->win.d8 + BPB_RsvdSecCnt);			/* Number of reserved sectors */
2370:source\fatfs/ff.c **** 	if (!nrsv) return FR_NO_FILESYSTEM;					/* (Must not be 0) */
2371:source\fatfs/ff.c **** 
2372:source\fatfs/ff.c **** 	/* Determine the FAT sub type */
2373:source\fatfs/ff.c **** 	sysect = nrsv + fasize + fs->n_rootdir / (SS(fs) / SZ_DIRE);	/* RSV + FAT + DIR */
2374:source\fatfs/ff.c **** 	if (tsect < sysect) return FR_NO_FILESYSTEM;		/* (Invalid volume size) */
2375:source\fatfs/ff.c **** 	nclst = (tsect - sysect) / fs->csize;				/* Number of clusters */
2376:source\fatfs/ff.c **** 	if (!nclst) return FR_NO_FILESYSTEM;				/* (Invalid volume size) */
2377:source\fatfs/ff.c **** 	fmt = FS_FAT12;
2378:source\fatfs/ff.c **** 	if (nclst >= MIN_FAT16) fmt = FS_FAT16;
2379:source\fatfs/ff.c **** 	if (nclst >= MIN_FAT32) fmt = FS_FAT32;
2380:source\fatfs/ff.c **** 
2381:source\fatfs/ff.c **** 	/* Boundaries and Limits */
2382:source\fatfs/ff.c **** 	fs->n_fatent = nclst + 2;							/* Number of FAT entries */
2383:source\fatfs/ff.c **** 	fs->volbase = bsect;								/* Volume start sector */
2384:source\fatfs/ff.c **** 	fs->fatbase = bsect + nrsv; 						/* FAT start sector */
2385:source\fatfs/ff.c **** 	fs->database = bsect + sysect;						/* Data start sector */
2386:source\fatfs/ff.c **** 	if (fmt == FS_FAT32) {
2387:source\fatfs/ff.c **** 		if (fs->n_rootdir) return FR_NO_FILESYSTEM;		/* (BPB_RootEntCnt must be 0) */
2388:source\fatfs/ff.c **** 		fs->dirbase = LD_DWORD(fs->win.d8 + BPB_RootClus);	/* Root directory start cluster */
2389:source\fatfs/ff.c **** 		szbfat = fs->n_fatent * 4;						/* (Needed FAT size) */
2390:source\fatfs/ff.c **** 	} else {
2391:source\fatfs/ff.c **** 		if (!fs->n_rootdir)	return FR_NO_FILESYSTEM;	/* (BPB_RootEntCnt must not be 0) */
2392:source\fatfs/ff.c **** 		fs->dirbase = fs->fatbase + fasize;				/* Root directory start sector */
2393:source\fatfs/ff.c **** 		szbfat = (fmt == FS_FAT16) ?					/* (Needed FAT size) */
2394:source\fatfs/ff.c **** 			fs->n_fatent * 2 : fs->n_fatent * 3 / 2 + (fs->n_fatent & 1);
2395:source\fatfs/ff.c **** 	}
2396:source\fatfs/ff.c **** 	if (fs->fsize < (szbfat + (SS(fs) - 1)) / SS(fs))	/* (BPB_FATSz must not be less than the size nee
2397:source\fatfs/ff.c **** 		return FR_NO_FILESYSTEM;
2398:source\fatfs/ff.c **** 
2399:source\fatfs/ff.c **** #if !_FS_READONLY
2400:source\fatfs/ff.c **** 	/* Initialize cluster allocation information */
2401:source\fatfs/ff.c **** 	fs->last_clust = fs->free_clust = 0xFFFFFFFF;
2402:source\fatfs/ff.c **** 
2403:source\fatfs/ff.c **** 	/* Get fsinfo if available */
2404:source\fatfs/ff.c **** 	fs->fsi_flag = 0x80;
2405:source\fatfs/ff.c **** #if (_FS_NOFSINFO & 3) != 3
2406:source\fatfs/ff.c **** 	if (fmt == FS_FAT32				/* Enable FSINFO only if FAT32 and BPB_FSInfo is 1 */
2407:source\fatfs/ff.c **** 		&& LD_WORD(fs->win.d8 + BPB_FSInfo) == 1
2408:source\fatfs/ff.c **** 		&& move_window(fs, bsect + 1) == FR_OK)
2409:source\fatfs/ff.c **** 	{
2410:source\fatfs/ff.c **** 		fs->fsi_flag = 0;
2411:source\fatfs/ff.c **** 		if (LD_WORD(fs->win.d8 + BS_55AA) == 0xAA55	/* Load FSINFO data if available */
2412:source\fatfs/ff.c **** 			&& LD_DWORD(fs->win.d8 + FSI_LeadSig) == 0x41615252
2413:source\fatfs/ff.c **** 			&& LD_DWORD(fs->win.d8 + FSI_StrucSig) == 0x61417272)
2414:source\fatfs/ff.c **** 		{
2415:source\fatfs/ff.c **** #if (_FS_NOFSINFO & 1) == 0
2416:source\fatfs/ff.c **** 			fs->free_clust = LD_DWORD(fs->win.d8 + FSI_Free_Count);
2417:source\fatfs/ff.c **** #endif
2418:source\fatfs/ff.c **** #if (_FS_NOFSINFO & 2) == 0
2419:source\fatfs/ff.c **** 			fs->last_clust = LD_DWORD(fs->win.d8 + FSI_Nxt_Free);
2420:source\fatfs/ff.c **** #endif
2421:source\fatfs/ff.c **** 		}
2422:source\fatfs/ff.c **** 	}
2423:source\fatfs/ff.c **** #endif
2424:source\fatfs/ff.c **** #endif
2425:source\fatfs/ff.c **** 	fs->fs_type = fmt;	/* FAT sub-type */
2426:source\fatfs/ff.c **** 	fs->id = ++Fsid;	/* File system mount ID */
2427:source\fatfs/ff.c **** #if _FS_RPATH
2428:source\fatfs/ff.c **** 	fs->cdir = 0;		/* Set current directory to root */
2429:source\fatfs/ff.c **** #endif
2430:source\fatfs/ff.c **** #if _FS_LOCK			/* Clear file lock semaphores */
2431:source\fatfs/ff.c **** 	clear_lock(fs);
2432:source\fatfs/ff.c **** #endif
2433:source\fatfs/ff.c **** 
2434:source\fatfs/ff.c **** 	return FR_OK;
2435:source\fatfs/ff.c **** }
2436:source\fatfs/ff.c **** 
2437:source\fatfs/ff.c **** 
2438:source\fatfs/ff.c **** 
2439:source\fatfs/ff.c **** 
2440:source\fatfs/ff.c **** /*-----------------------------------------------------------------------*/
2441:source\fatfs/ff.c **** /* Check if the file/directory object is valid or not                    */
2442:source\fatfs/ff.c **** /*-----------------------------------------------------------------------*/
2443:source\fatfs/ff.c **** 
2444:source\fatfs/ff.c **** static
2445:source\fatfs/ff.c **** FRESULT validate (	/* FR_OK(0): The object is valid, !=0: Invalid */
2446:source\fatfs/ff.c **** 	void* obj		/* Pointer to the object FIL/DIR to check validity */
2447:source\fatfs/ff.c **** )
2448:source\fatfs/ff.c **** {
 779              		.loc 1 2448 1 is_stmt 1 view -0
 780              		.cfi_startproc
 781              		@ args = 0, pretend = 0, frame = 0
 782              		@ frame_needed = 0, uses_anonymous_args = 0
2449:source\fatfs/ff.c **** 	FIL *fil = (FIL*)obj;	/* Assuming offset of .fs and .id in the FIL/DIR structure is identical */
 783              		.loc 1 2449 2 view .LVU247
2450:source\fatfs/ff.c **** 
2451:source\fatfs/ff.c **** 
2452:source\fatfs/ff.c **** 	if (!fil || !fil->fs || !fil->fs->fs_type || fil->fs->id != fil->id || (disk_status(fil->fs->drv) 
 784              		.loc 1 2452 2 view .LVU248
2448:source\fatfs/ff.c **** 	FIL *fil = (FIL*)obj;	/* Assuming offset of .fs and .id in the FIL/DIR structure is identical */
 785              		.loc 1 2448 1 is_stmt 0 view .LVU249
 786 0000 08B5     		push	{r3, lr}
 787              		.cfi_def_cfa_offset 8
 788              		.cfi_offset 3, -8
 789              		.cfi_offset 14, -4
 790              		.loc 1 2452 5 view .LVU250
 791 0002 90B1     		cbz	r0, .L86
 792              		.loc 1 2452 18 discriminator 1 view .LVU251
 793 0004 D0F80032 		ldr	r3, [r0, #512]
 794              		.loc 1 2452 11 discriminator 1 view .LVU252
 795 0008 7BB1     		cbz	r3, .L86
 796              		.loc 1 2452 23 discriminator 2 view .LVU253
 797 000a 93F80022 		ldrb	r2, [r3, #512]	@ zero_extendqisi2
 798 000e 62B1     		cbz	r2, .L86
 799              		.loc 1 2452 44 discriminator 3 view .LVU254
 800 0010 B3F80612 		ldrh	r1, [r3, #518]
 801 0014 B0F80422 		ldrh	r2, [r0, #516]
 802 0018 9142     		cmp	r1, r2
 803 001a 06D1     		bne	.L86
 804              		.loc 1 2452 74 discriminator 4 view .LVU255
 805 001c 93F80102 		ldrb	r0, [r3, #513]	@ zero_extendqisi2
 806              	.LVL83:
 807              		.loc 1 2452 74 discriminator 4 view .LVU256
 808 0020 FFF7FEFF 		bl	disk_status
 809              	.LVL84:
 810              		.loc 1 2452 70 discriminator 4 view .LVU257
 811 0024 10F00100 		ands	r0, r0, #1
 812 0028 00D0     		beq	.L87
 813              	.L86:
2453:source\fatfs/ff.c **** 		return FR_INVALID_OBJECT;
 814              		.loc 1 2453 10 view .LVU258
 815 002a 0920     		movs	r0, #9
 816              	.L87:
2454:source\fatfs/ff.c **** 
2455:source\fatfs/ff.c **** 	ENTER_FF(fil->fs);		/* Lock file system */
2456:source\fatfs/ff.c **** 
2457:source\fatfs/ff.c **** 	return FR_OK;
2458:source\fatfs/ff.c **** }
 817              		.loc 1 2458 1 view .LVU259
 818 002c 08BD     		pop	{r3, pc}
 819              		.cfi_endproc
 820              	.LFE168:
 822              		.section	.text.get_fileinfo,"ax",%progbits
 823              		.align	1
 824              		.syntax unified
 825              		.thumb
 826              		.thumb_func
 828              	get_fileinfo:
 829              	.LVL85:
 830              	.LFB162:
1777:source\fatfs/ff.c **** 	UINT i;
 831              		.loc 1 1777 1 is_stmt 1 view -0
 832              		.cfi_startproc
 833              		@ args = 0, pretend = 0, frame = 0
 834              		@ frame_needed = 0, uses_anonymous_args = 0
1778:source\fatfs/ff.c **** 	TCHAR *p, c;
 835              		.loc 1 1778 2 view .LVU261
1779:source\fatfs/ff.c **** 	BYTE *dir;
 836              		.loc 1 1779 2 view .LVU262
1780:source\fatfs/ff.c **** #if _USE_LFN
 837              		.loc 1 1780 2 view .LVU263
1782:source\fatfs/ff.c **** #endif
 838              		.loc 1 1782 2 view .LVU264
1785:source\fatfs/ff.c **** 	if (dp->sect) {		/* Get SFN */
 839              		.loc 1 1785 2 view .LVU265
1786:source\fatfs/ff.c **** 		dir = dp->dir;
 840              		.loc 1 1786 5 is_stmt 0 view .LVU266
 841 0000 D0F81022 		ldr	r2, [r0, #528]
1777:source\fatfs/ff.c **** 	UINT i;
 842              		.loc 1 1777 1 view .LVU267
 843 0004 F8B5     		push	{r3, r4, r5, r6, r7, lr}
 844              		.cfi_def_cfa_offset 24
 845              		.cfi_offset 3, -24
 846              		.cfi_offset 4, -20
 847              		.cfi_offset 5, -16
 848              		.cfi_offset 6, -12
 849              		.cfi_offset 7, -8
 850              		.cfi_offset 14, -4
1777:source\fatfs/ff.c **** 	UINT i;
 851              		.loc 1 1777 1 view .LVU268
 852 0006 0D46     		mov	r5, r1
1785:source\fatfs/ff.c **** 	if (dp->sect) {		/* Get SFN */
 853              		.loc 1 1785 4 view .LVU269
 854 0008 01F10903 		add	r3, r1, #9
 855              	.LVL86:
1786:source\fatfs/ff.c **** 		dir = dp->dir;
 856              		.loc 1 1786 2 is_stmt 1 view .LVU270
1786:source\fatfs/ff.c **** 		dir = dp->dir;
 857              		.loc 1 1786 5 is_stmt 0 view .LVU271
 858 000c 72B3     		cbz	r2, .L101
1787:source\fatfs/ff.c **** 		i = 0;
 859              		.loc 1 1787 3 is_stmt 1 view .LVU272
1787:source\fatfs/ff.c **** 		i = 0;
 860              		.loc 1 1787 7 is_stmt 0 view .LVU273
 861 000e D0F81412 		ldr	r1, [r0, #532]
 862              	.LVL87:
1788:source\fatfs/ff.c **** 		while (i < 11) {		/* Copy name body and extension */
 863              		.loc 1 1788 3 is_stmt 1 view .LVU274
1789:source\fatfs/ff.c **** 			c = (TCHAR)dir[i++];
 864              		.loc 1 1789 3 view .LVU275
1789:source\fatfs/ff.c **** 			c = (TCHAR)dir[i++];
 865              		.loc 1 1789 9 view .LVU276
1788:source\fatfs/ff.c **** 		while (i < 11) {		/* Copy name body and extension */
 866              		.loc 1 1788 5 is_stmt 0 view .LVU277
 867 0012 0024     		movs	r4, #0
 868 0014 4E1E     		subs	r6, r1, #1
1793:source\fatfs/ff.c **** #if _USE_LFN
 869              		.loc 1 1793 21 view .LVU278
 870 0016 2E27     		movs	r7, #46
 871              	.LVL88:
 872              	.L107:
1790:source\fatfs/ff.c **** 			if (c == ' ') continue;				/* Skip padding spaces */
 873              		.loc 1 1790 4 is_stmt 1 view .LVU279
1790:source\fatfs/ff.c **** 			if (c == ' ') continue;				/* Skip padding spaces */
 874              		.loc 1 1790 6 is_stmt 0 view .LVU280
 875 0018 16F8012F 		ldrb	r2, [r6, #1]!	@ zero_extendqisi2
1791:source\fatfs/ff.c **** 			if (c == RDDEM) c = (TCHAR)DDEM;	/* Restore replaced DDEM character */
 876              		.loc 1 1791 7 view .LVU281
 877 001c 202A     		cmp	r2, #32
1790:source\fatfs/ff.c **** 			if (c == ' ') continue;				/* Skip padding spaces */
 878              		.loc 1 1790 20 view .LVU282
 879 001e 04F10104 		add	r4, r4, #1
 880              	.LVL89:
1791:source\fatfs/ff.c **** 			if (c == RDDEM) c = (TCHAR)DDEM;	/* Restore replaced DDEM character */
 881              		.loc 1 1791 4 is_stmt 1 view .LVU283
1791:source\fatfs/ff.c **** 			if (c == RDDEM) c = (TCHAR)DDEM;	/* Restore replaced DDEM character */
 882              		.loc 1 1791 7 is_stmt 0 view .LVU284
 883 0022 19D0     		beq	.L102
1792:source\fatfs/ff.c **** 			if (i == 9) *p++ = '.';				/* Insert a . if extension is exist */
 884              		.loc 1 1792 4 is_stmt 1 view .LVU285
1792:source\fatfs/ff.c **** 			if (i == 9) *p++ = '.';				/* Insert a . if extension is exist */
 885              		.loc 1 1792 7 is_stmt 0 view .LVU286
 886 0024 052A     		cmp	r2, #5
 887 0026 4DD0     		beq	.L103
1793:source\fatfs/ff.c **** #if _USE_LFN
 888              		.loc 1 1793 4 is_stmt 1 view .LVU287
1793:source\fatfs/ff.c **** #if _USE_LFN
 889              		.loc 1 1793 7 is_stmt 0 view .LVU288
 890 0028 092C     		cmp	r4, #9
 891 002a 01D1     		bne	.L104
 892              	.LVL90:
 893              	.L115:
1793:source\fatfs/ff.c **** #if _USE_LFN
 894              		.loc 1 1793 16 is_stmt 1 discriminator 1 view .LVU289
1793:source\fatfs/ff.c **** #if _USE_LFN
 895              		.loc 1 1793 21 is_stmt 0 discriminator 1 view .LVU290
 896 002c 03F8017B 		strb	r7, [r3], #1
 897              	.LVL91:
 898              	.L104:
1795:source\fatfs/ff.c **** 				c += 0x20;			/* To lower */
 899              		.loc 1 1795 4 is_stmt 1 view .LVU291
1795:source\fatfs/ff.c **** 				c += 0x20;			/* To lower */
 900              		.loc 1 1795 7 is_stmt 0 view .LVU292
 901 0030 A2F1410C 		sub	ip, r2, #65
 902 0034 BCF1190F 		cmp	ip, #25
 903 0038 0CD8     		bhi	.L105
1795:source\fatfs/ff.c **** 				c += 0x20;			/* To lower */
 904              		.loc 1 1795 57 discriminator 1 view .LVU293
 905 003a 082C     		cmp	r4, #8
1795:source\fatfs/ff.c **** 				c += 0x20;			/* To lower */
 906              		.loc 1 1795 26 discriminator 1 view .LVU294
 907 003c 91F80CE0 		ldrb	lr, [r1, #12]	@ zero_extendqisi2
1795:source\fatfs/ff.c **** 				c += 0x20;			/* To lower */
 908              		.loc 1 1795 57 discriminator 1 view .LVU295
 909 0040 8CBF     		ite	hi
 910 0042 4FF0100C 		movhi	ip, #16
 911 0046 4FF0080C 		movls	ip, #8
1795:source\fatfs/ff.c **** 				c += 0x20;			/* To lower */
 912              		.loc 1 1795 19 discriminator 1 view .LVU296
 913 004a 1EEA0C0F 		tst	lr, ip
1796:source\fatfs/ff.c **** #if _LFN_UNICODE
 914              		.loc 1 1796 5 is_stmt 1 discriminator 1 view .LVU297
1796:source\fatfs/ff.c **** #if _LFN_UNICODE
 915              		.loc 1 1796 7 is_stmt 0 discriminator 1 view .LVU298
 916 004e 1CBF     		itt	ne
 917 0050 2032     		addne	r2, r2, #32
 918 0052 D2B2     		uxtbne	r2, r2
 919              	.LVL92:
 920              	.L105:
1804:source\fatfs/ff.c **** 		}
 921              		.loc 1 1804 4 is_stmt 1 view .LVU299
1804:source\fatfs/ff.c **** 		}
 922              		.loc 1 1804 9 is_stmt 0 view .LVU300
 923 0054 03F8012B 		strb	r2, [r3], #1
 924              	.LVL93:
 925              	.L102:
1789:source\fatfs/ff.c **** 			c = (TCHAR)dir[i++];
 926              		.loc 1 1789 9 is_stmt 1 view .LVU301
 927 0058 0B2C     		cmp	r4, #11
 928 005a DDD1     		bne	.L107
1806:source\fatfs/ff.c **** 		fno->fsize = LD_DWORD(dir + DIR_FileSize);	/* Size */
 929              		.loc 1 1806 3 view .LVU302
1806:source\fatfs/ff.c **** 		fno->fsize = LD_DWORD(dir + DIR_FileSize);	/* Size */
 930              		.loc 1 1806 16 is_stmt 0 view .LVU303
 931 005c CA7A     		ldrb	r2, [r1, #11]	@ zero_extendqisi2
 932              	.LVL94:
1806:source\fatfs/ff.c **** 		fno->fsize = LD_DWORD(dir + DIR_FileSize);	/* Size */
 933              		.loc 1 1806 16 view .LVU304
 934 005e 2A72     		strb	r2, [r5, #8]
1807:source\fatfs/ff.c **** 		fno->fdate = LD_WORD(dir + DIR_WrtDate);	/* Date */
 935              		.loc 1 1807 3 is_stmt 1 view .LVU305
1807:source\fatfs/ff.c **** 		fno->fdate = LD_WORD(dir + DIR_WrtDate);	/* Date */
 936              		.loc 1 1807 16 is_stmt 0 view .LVU306
 937 0060 CA69     		ldr	r2, [r1, #28]	@ unaligned
1807:source\fatfs/ff.c **** 		fno->fdate = LD_WORD(dir + DIR_WrtDate);	/* Date */
 938              		.loc 1 1807 14 view .LVU307
 939 0062 2A60     		str	r2, [r5]
1808:source\fatfs/ff.c **** 		fno->ftime = LD_WORD(dir + DIR_WrtTime);	/* Time */
 940              		.loc 1 1808 3 is_stmt 1 view .LVU308
 941 0064 0A8B     		ldrh	r2, [r1, #24]	@ unaligned
1808:source\fatfs/ff.c **** 		fno->ftime = LD_WORD(dir + DIR_WrtTime);	/* Time */
 942              		.loc 1 1808 14 is_stmt 0 view .LVU309
 943 0066 AA80     		strh	r2, [r5, #4]	@ movhi
1809:source\fatfs/ff.c **** 	}
 944              		.loc 1 1809 3 is_stmt 1 view .LVU310
 945 0068 CA8A     		ldrh	r2, [r1, #22]	@ unaligned
1809:source\fatfs/ff.c **** 	}
 946              		.loc 1 1809 14 is_stmt 0 view .LVU311
 947 006a EA80     		strh	r2, [r5, #6]	@ movhi
 948              	.LVL95:
 949              	.L101:
1811:source\fatfs/ff.c **** 
 950              		.loc 1 1811 2 is_stmt 1 view .LVU312
1811:source\fatfs/ff.c **** 
 951              		.loc 1 1811 5 is_stmt 0 view .LVU313
 952 006c 0024     		movs	r4, #0
 953 006e 1C70     		strb	r4, [r3]
1814:source\fatfs/ff.c **** 		i = 0; p = fno->lfname;
 954              		.loc 1 1814 2 is_stmt 1 view .LVU314
1814:source\fatfs/ff.c **** 		i = 0; p = fno->lfname;
 955              		.loc 1 1814 9 is_stmt 0 view .LVU315
 956 0070 AE69     		ldr	r6, [r5, #24]
1814:source\fatfs/ff.c **** 		i = 0; p = fno->lfname;
 957              		.loc 1 1814 5 view .LVU316
 958 0072 2EB1     		cbz	r6, .L100
1815:source\fatfs/ff.c **** 		if (dp->sect && fno->lfsize && dp->lfn_idx != 0xFFFF) {	/* Get LFN if available */
 959              		.loc 1 1815 3 is_stmt 1 view .LVU317
 960              	.LVL96:
1815:source\fatfs/ff.c **** 		if (dp->sect && fno->lfsize && dp->lfn_idx != 0xFFFF) {	/* Get LFN if available */
 961              		.loc 1 1815 10 view .LVU318
1816:source\fatfs/ff.c **** 			lfn = dp->lfn;
 962              		.loc 1 1816 3 view .LVU319
1816:source\fatfs/ff.c **** 			lfn = dp->lfn;
 963              		.loc 1 1816 6 is_stmt 0 view .LVU320
 964 0074 D0F81032 		ldr	r3, [r0, #528]
 965 0078 1BB9     		cbnz	r3, .L109
 966              	.LVL97:
 967              	.L111:
1815:source\fatfs/ff.c **** 		if (dp->sect && fno->lfsize && dp->lfn_idx != 0xFFFF) {	/* Get LFN if available */
 968              		.loc 1 1815 5 view .LVU321
 969 007a 0024     		movs	r4, #0
 970              	.L110:
 971              	.LVL98:
1829:source\fatfs/ff.c **** 	}
 972              		.loc 1 1829 3 is_stmt 1 view .LVU322
1829:source\fatfs/ff.c **** 	}
 973              		.loc 1 1829 8 is_stmt 0 view .LVU323
 974 007c 0023     		movs	r3, #0
 975 007e 3355     		strb	r3, [r6, r4]
 976              	.LVL99:
 977              	.L100:
1832:source\fatfs/ff.c **** #endif /* _FS_MINIMIZE <= 1 || _FS_RPATH >= 2 */
 978              		.loc 1 1832 1 view .LVU324
 979 0080 F8BD     		pop	{r3, r4, r5, r6, r7, pc}
 980              	.LVL100:
 981              	.L109:
1816:source\fatfs/ff.c **** 			lfn = dp->lfn;
 982              		.loc 1 1816 16 discriminator 1 view .LVU325
 983 0082 EB69     		ldr	r3, [r5, #28]
 984 0084 002B     		cmp	r3, #0
 985 0086 F8D0     		beq	.L111
1816:source\fatfs/ff.c **** 			lfn = dp->lfn;
 986              		.loc 1 1816 31 discriminator 2 view .LVU326
 987 0088 B0F82422 		ldrh	r2, [r0, #548]
 988 008c 4FF6FF73 		movw	r3, #65535
 989 0090 9A42     		cmp	r2, r3
 990 0092 F2D0     		beq	.L111
1817:source\fatfs/ff.c **** 			while ((w = *lfn++) != 0) {		/* Get an LFN character */
 991              		.loc 1 1817 4 is_stmt 1 view .LVU327
1817:source\fatfs/ff.c **** 			while ((w = *lfn++) != 0) {		/* Get an LFN character */
 992              		.loc 1 1817 8 is_stmt 0 view .LVU328
 993 0094 D0F82072 		ldr	r7, [r0, #544]
 994              	.LVL101:
1818:source\fatfs/ff.c **** #if !_LFN_UNICODE
 995              		.loc 1 1818 4 is_stmt 1 view .LVU329
 996              	.L112:
1818:source\fatfs/ff.c **** #if !_LFN_UNICODE
 997              		.loc 1 1818 10 view .LVU330
1818:source\fatfs/ff.c **** #if !_LFN_UNICODE
 998              		.loc 1 1818 14 is_stmt 0 view .LVU331
 999 0098 37F8020B 		ldrh	r0, [r7], #2
 1000              	.LVL102:
1818:source\fatfs/ff.c **** #if !_LFN_UNICODE
 1001              		.loc 1 1818 10 view .LVU332
 1002 009c 0028     		cmp	r0, #0
 1003 009e EDD0     		beq	.L110
1820:source\fatfs/ff.c **** 				if (!w) { i = 0; break; }	/* No LFN if it could not be converted */
 1004              		.loc 1 1820 5 is_stmt 1 view .LVU333
1820:source\fatfs/ff.c **** 				if (!w) { i = 0; break; }	/* No LFN if it could not be converted */
 1005              		.loc 1 1820 9 is_stmt 0 view .LVU334
 1006 00a0 0021     		movs	r1, #0
 1007 00a2 FFF7FEFF 		bl	ff_convert
 1008              	.LVL103:
1821:source\fatfs/ff.c **** 				if (_DF1S && w >= 0x100)	/* Put 1st byte if it is a DBC (always false on SBCS cfg) */
 1009              		.loc 1 1821 5 is_stmt 1 view .LVU335
1821:source\fatfs/ff.c **** 				if (_DF1S && w >= 0x100)	/* Put 1st byte if it is a DBC (always false on SBCS cfg) */
 1010              		.loc 1 1821 8 is_stmt 0 view .LVU336
 1011 00a6 0028     		cmp	r0, #0
 1012 00a8 E7D0     		beq	.L111
1822:source\fatfs/ff.c **** 					p[i++] = (TCHAR)(w >> 8);
 1013              		.loc 1 1822 5 is_stmt 1 view .LVU337
1822:source\fatfs/ff.c **** 					p[i++] = (TCHAR)(w >> 8);
 1014              		.loc 1 1822 8 is_stmt 0 view .LVU338
 1015 00aa FF28     		cmp	r0, #255
1823:source\fatfs/ff.c **** #endif
 1016              		.loc 1 1823 6 is_stmt 1 view .LVU339
 1017              	.LVL104:
1823:source\fatfs/ff.c **** #endif
 1018              		.loc 1 1823 15 is_stmt 0 view .LVU340
 1019 00ac 84BF     		itt	hi
 1020 00ae 030A     		lsrhi	r3, r0, #8
 1021 00b0 3355     		strbhi	r3, [r6, r4]
1825:source\fatfs/ff.c **** 				p[i++] = (TCHAR)w;
 1022              		.loc 1 1825 26 view .LVU341
 1023 00b2 EB69     		ldr	r3, [r5, #28]
1823:source\fatfs/ff.c **** #endif
 1024              		.loc 1 1823 9 view .LVU342
 1025 00b4 88BF     		it	hi
 1026 00b6 0134     		addhi	r4, r4, #1
 1027              	.LVL105:
1825:source\fatfs/ff.c **** 				p[i++] = (TCHAR)w;
 1028              		.loc 1 1825 5 is_stmt 1 view .LVU343
1825:source\fatfs/ff.c **** 				p[i++] = (TCHAR)w;
 1029              		.loc 1 1825 26 is_stmt 0 view .LVU344
 1030 00b8 013B     		subs	r3, r3, #1
1825:source\fatfs/ff.c **** 				p[i++] = (TCHAR)w;
 1031              		.loc 1 1825 8 view .LVU345
 1032 00ba A342     		cmp	r3, r4
 1033 00bc DDD9     		bls	.L111
1826:source\fatfs/ff.c **** 			}
 1034              		.loc 1 1826 5 is_stmt 1 view .LVU346
 1035              	.LVL106:
1826:source\fatfs/ff.c **** 			}
 1036              		.loc 1 1826 14 is_stmt 0 view .LVU347
 1037 00be 3055     		strb	r0, [r6, r4]
1826:source\fatfs/ff.c **** 			}
 1038              		.loc 1 1826 8 view .LVU348
 1039 00c0 0134     		adds	r4, r4, #1
 1040              	.LVL107:
1826:source\fatfs/ff.c **** 			}
 1041              		.loc 1 1826 8 view .LVU349
 1042 00c2 E9E7     		b	.L112
 1043              	.LVL108:
 1044              	.L103:
1793:source\fatfs/ff.c **** #if _USE_LFN
 1045              		.loc 1 1793 4 is_stmt 1 view .LVU350
1793:source\fatfs/ff.c **** #if _USE_LFN
 1046              		.loc 1 1793 7 is_stmt 0 view .LVU351
 1047 00c4 092C     		cmp	r4, #9
1792:source\fatfs/ff.c **** 			if (i == 9) *p++ = '.';				/* Insert a . if extension is exist */
 1048              		.loc 1 1792 22 view .LVU352
 1049 00c6 4FF0E502 		mov	r2, #229
1793:source\fatfs/ff.c **** #if _USE_LFN
 1050              		.loc 1 1793 7 view .LVU353
 1051 00ca C3D1     		bne	.L105
 1052 00cc AEE7     		b	.L115
 1053              		.cfi_endproc
 1054              	.LFE162:
 1056              		.section	.text.sync_window.part.0,"ax",%progbits
 1057              		.align	1
 1058              		.syntax unified
 1059              		.thumb
 1060              		.thumb_func
 1062              	sync_window.part.0:
 1063              	.LVL109:
 1064              	.LFB193:
 773:source\fatfs/ff.c **** 	FATFS* fs		/* File system object */
 1065              		.loc 1 773 9 is_stmt 1 view -0
 1066              		.cfi_startproc
 1067              		@ args = 0, pretend = 0, frame = 0
 1068              		@ frame_needed = 0, uses_anonymous_args = 0
 783:source\fatfs/ff.c **** 		if (disk_write(fs->drv, fs->win.d8, wsect, 1) != RES_OK) {
 1069              		.loc 1 783 3 view .LVU355
 773:source\fatfs/ff.c **** 	FATFS* fs		/* File system object */
 1070              		.loc 1 773 9 is_stmt 0 view .LVU356
 1071 0000 F8B5     		push	{r3, r4, r5, r6, r7, lr}
 1072              		.cfi_def_cfa_offset 24
 1073              		.cfi_offset 3, -24
 1074              		.cfi_offset 4, -20
 1075              		.cfi_offset 5, -16
 1076              		.cfi_offset 6, -12
 1077              		.cfi_offset 7, -8
 1078              		.cfi_offset 14, -4
 783:source\fatfs/ff.c **** 		if (disk_write(fs->drv, fs->win.d8, wsect, 1) != RES_OK) {
 1079              		.loc 1 783 9 view .LVU357
 1080 0002 D0F82C62 		ldr	r6, [r0, #556]
 1081              	.LVL110:
 784:source\fatfs/ff.c **** 			res = FR_DISK_ERR;
 1082              		.loc 1 784 3 is_stmt 1 view .LVU358
 784:source\fatfs/ff.c **** 			res = FR_DISK_ERR;
 1083              		.loc 1 784 7 is_stmt 0 view .LVU359
 1084 0006 0146     		mov	r1, r0
 773:source\fatfs/ff.c **** 	FATFS* fs		/* File system object */
 1085              		.loc 1 773 9 view .LVU360
 1086 0008 0446     		mov	r4, r0
 784:source\fatfs/ff.c **** 			res = FR_DISK_ERR;
 1087              		.loc 1 784 7 view .LVU361
 1088 000a 0123     		movs	r3, #1
 1089 000c 90F80102 		ldrb	r0, [r0, #513]	@ zero_extendqisi2
 1090              	.LVL111:
 784:source\fatfs/ff.c **** 			res = FR_DISK_ERR;
 1091              		.loc 1 784 7 view .LVU362
 1092 0010 3246     		mov	r2, r6
 1093 0012 FFF7FEFF 		bl	disk_write
 1094              	.LVL112:
 784:source\fatfs/ff.c **** 			res = FR_DISK_ERR;
 1095              		.loc 1 784 6 view .LVU363
 1096 0016 0546     		mov	r5, r0
 1097 0018 D0B9     		cbnz	r0, .L143
 787:source\fatfs/ff.c **** 			if (wsect - fs->fatbase < fs->fsize) {		/* Is it in the FAT area? */
 1098              		.loc 1 787 4 is_stmt 1 view .LVU364
 788:source\fatfs/ff.c **** 				for (nf = fs->n_fats; nf >= 2; nf--) {	/* Reflect the change to all FAT copies */
 1099              		.loc 1 788 14 is_stmt 0 view .LVU365
 1100 001a D4F82032 		ldr	r3, [r4, #544]
 788:source\fatfs/ff.c **** 				for (nf = fs->n_fats; nf >= 2; nf--) {	/* Reflect the change to all FAT copies */
 1101              		.loc 1 788 7 view .LVU366
 1102 001e D4F81822 		ldr	r2, [r4, #536]
 787:source\fatfs/ff.c **** 			if (wsect - fs->fatbase < fs->fsize) {		/* Is it in the FAT area? */
 1103              		.loc 1 787 14 view .LVU367
 1104 0022 84F80402 		strb	r0, [r4, #516]
 788:source\fatfs/ff.c **** 				for (nf = fs->n_fats; nf >= 2; nf--) {	/* Reflect the change to all FAT copies */
 1105              		.loc 1 788 4 is_stmt 1 view .LVU368
 788:source\fatfs/ff.c **** 				for (nf = fs->n_fats; nf >= 2; nf--) {	/* Reflect the change to all FAT copies */
 1106              		.loc 1 788 14 is_stmt 0 view .LVU369
 1107 0026 F31A     		subs	r3, r6, r3
 788:source\fatfs/ff.c **** 				for (nf = fs->n_fats; nf >= 2; nf--) {	/* Reflect the change to all FAT copies */
 1108              		.loc 1 788 7 view .LVU370
 1109 0028 9342     		cmp	r3, r2
 1110 002a 03D2     		bcs	.L138
 789:source\fatfs/ff.c **** 					wsect += fs->fsize;
 1111              		.loc 1 789 5 is_stmt 1 view .LVU371
 789:source\fatfs/ff.c **** 					wsect += fs->fsize;
 1112              		.loc 1 789 13 is_stmt 0 view .LVU372
 1113 002c 94F80372 		ldrb	r7, [r4, #515]	@ zero_extendqisi2
 1114              	.LVL113:
 1115              	.L140:
 789:source\fatfs/ff.c **** 					wsect += fs->fsize;
 1116              		.loc 1 789 27 is_stmt 1 view .LVU373
 789:source\fatfs/ff.c **** 					wsect += fs->fsize;
 1117              		.loc 1 789 5 is_stmt 0 view .LVU374
 1118 0030 012F     		cmp	r7, #1
 1119 0032 01D8     		bhi	.L141
 1120              	.LVL114:
 1121              	.L138:
 796:source\fatfs/ff.c **** }
 1122              		.loc 1 796 2 is_stmt 1 view .LVU375
 797:source\fatfs/ff.c **** #endif
 1123              		.loc 1 797 1 is_stmt 0 view .LVU376
 1124 0034 2846     		mov	r0, r5
 1125 0036 F8BD     		pop	{r3, r4, r5, r6, r7, pc}
 1126              	.LVL115:
 1127              	.L141:
 790:source\fatfs/ff.c **** 					disk_write(fs->drv, fs->win.d8, wsect, 1);
 1128              		.loc 1 790 6 is_stmt 1 view .LVU377
 790:source\fatfs/ff.c **** 					disk_write(fs->drv, fs->win.d8, wsect, 1);
 1129              		.loc 1 790 12 is_stmt 0 view .LVU378
 1130 0038 D4F81832 		ldr	r3, [r4, #536]
 791:source\fatfs/ff.c **** 				}
 1131              		.loc 1 791 6 view .LVU379
 1132 003c 94F80102 		ldrb	r0, [r4, #513]	@ zero_extendqisi2
 790:source\fatfs/ff.c **** 					disk_write(fs->drv, fs->win.d8, wsect, 1);
 1133              		.loc 1 790 12 view .LVU380
 1134 0040 1E44     		add	r6, r6, r3
 1135              	.LVL116:
 791:source\fatfs/ff.c **** 				}
 1136              		.loc 1 791 6 is_stmt 1 view .LVU381
 1137 0042 3246     		mov	r2, r6
 1138 0044 0123     		movs	r3, #1
 1139 0046 2146     		mov	r1, r4
 1140 0048 FFF7FEFF 		bl	disk_write
 1141              	.LVL117:
 789:source\fatfs/ff.c **** 					wsect += fs->fsize;
 1142              		.loc 1 789 36 view .LVU382
 789:source\fatfs/ff.c **** 					wsect += fs->fsize;
 1143              		.loc 1 789 38 is_stmt 0 view .LVU383
 1144 004c 013F     		subs	r7, r7, #1
 1145              	.LVL118:
 789:source\fatfs/ff.c **** 					wsect += fs->fsize;
 1146              		.loc 1 789 38 view .LVU384
 1147 004e EFE7     		b	.L140
 1148              	.LVL119:
 1149              	.L143:
 785:source\fatfs/ff.c **** 		} else {
 1150              		.loc 1 785 8 view .LVU385
 1151 0050 0125     		movs	r5, #1
 1152 0052 EFE7     		b	.L138
 1153              		.cfi_endproc
 1154              	.LFE193:
 1156              		.section	.text.sync_window,"ax",%progbits
 1157              		.align	1
 1158              		.syntax unified
 1159              		.thumb
 1160              		.thumb_func
 1162              	sync_window:
 1163              	.LVL120:
 1164              	.LFB139:
 776:source\fatfs/ff.c **** 	DWORD wsect;
 1165              		.loc 1 776 1 is_stmt 1 view -0
 1166              		.cfi_startproc
 1167              		@ args = 0, pretend = 0, frame = 0
 1168              		@ frame_needed = 0, uses_anonymous_args = 0
 1169              		@ link register save eliminated.
 777:source\fatfs/ff.c **** 	UINT nf;
 1170              		.loc 1 777 2 view .LVU387
 778:source\fatfs/ff.c **** 	FRESULT res = FR_OK;
 1171              		.loc 1 778 2 view .LVU388
 779:source\fatfs/ff.c **** 
 1172              		.loc 1 779 2 view .LVU389
 782:source\fatfs/ff.c **** 		wsect = fs->winsect;	/* Current sector number */
 1173              		.loc 1 782 2 view .LVU390
 782:source\fatfs/ff.c **** 		wsect = fs->winsect;	/* Current sector number */
 1174              		.loc 1 782 8 is_stmt 0 view .LVU391
 1175 0000 90F80432 		ldrb	r3, [r0, #516]	@ zero_extendqisi2
 782:source\fatfs/ff.c **** 		wsect = fs->winsect;	/* Current sector number */
 1176              		.loc 1 782 5 view .LVU392
 1177 0004 0BB1     		cbz	r3, .L145
 1178 0006 FFF7FEBF 		b	sync_window.part.0
 1179              	.LVL121:
 1180              	.L145:
 796:source\fatfs/ff.c **** }
 1181              		.loc 1 796 2 is_stmt 1 view .LVU393
 797:source\fatfs/ff.c **** #endif
 1182              		.loc 1 797 1 is_stmt 0 view .LVU394
 1183 000a 1846     		mov	r0, r3
 1184              	.LVL122:
 797:source\fatfs/ff.c **** #endif
 1185              		.loc 1 797 1 view .LVU395
 1186 000c 7047     		bx	lr
 1187              		.cfi_endproc
 1188              	.LFE139:
 1190              		.section	.text.move_window,"ax",%progbits
 1191              		.align	1
 1192              		.syntax unified
 1193              		.thumb
 1194              		.thumb_func
 1196              	move_window:
 1197              	.LVL123:
 1198              	.LFB140:
 806:source\fatfs/ff.c **** 	FRESULT res = FR_OK;
 1199              		.loc 1 806 1 is_stmt 1 view -0
 1200              		.cfi_startproc
 1201              		@ args = 0, pretend = 0, frame = 0
 1202              		@ frame_needed = 0, uses_anonymous_args = 0
 807:source\fatfs/ff.c **** 
 1203              		.loc 1 807 2 view .LVU397
 810:source\fatfs/ff.c **** #if !_FS_READONLY
 1204              		.loc 1 810 2 view .LVU398
 806:source\fatfs/ff.c **** 	FRESULT res = FR_OK;
 1205              		.loc 1 806 1 is_stmt 0 view .LVU399
 1206 0000 38B5     		push	{r3, r4, r5, lr}
 1207              		.cfi_def_cfa_offset 16
 1208              		.cfi_offset 3, -16
 1209              		.cfi_offset 4, -12
 1210              		.cfi_offset 5, -8
 1211              		.cfi_offset 14, -4
 810:source\fatfs/ff.c **** #if !_FS_READONLY
 1212              		.loc 1 810 5 view .LVU400
 1213 0002 D0F82C32 		ldr	r3, [r0, #556]
 1214 0006 8B42     		cmp	r3, r1
 806:source\fatfs/ff.c **** 	FRESULT res = FR_OK;
 1215              		.loc 1 806 1 view .LVU401
 1216 0008 0546     		mov	r5, r0
 1217 000a 0C46     		mov	r4, r1
 810:source\fatfs/ff.c **** #if !_FS_READONLY
 1218              		.loc 1 810 5 view .LVU402
 1219 000c 11D0     		beq	.L149
 812:source\fatfs/ff.c **** #endif
 1220              		.loc 1 812 3 is_stmt 1 view .LVU403
 812:source\fatfs/ff.c **** #endif
 1221              		.loc 1 812 9 is_stmt 0 view .LVU404
 1222 000e FFF7FEFF 		bl	sync_window
 1223              	.LVL124:
 814:source\fatfs/ff.c **** 			if (disk_read(fs->drv, fs->win.d8, sector, 1) != RES_OK) {
 1224              		.loc 1 814 3 is_stmt 1 view .LVU405
 814:source\fatfs/ff.c **** 			if (disk_read(fs->drv, fs->win.d8, sector, 1) != RES_OK) {
 1225              		.loc 1 814 6 is_stmt 0 view .LVU406
 1226 0012 68B9     		cbnz	r0, .L147
 1227              	.LVL125:
 1228              	.LBB6:
 1229              	.LBI6:
 802:source\fatfs/ff.c **** 	FATFS* fs,		/* File system object */
 1230              		.loc 1 802 9 is_stmt 1 view .LVU407
 1231              	.LBB7:
 815:source\fatfs/ff.c **** 				sector = 0xFFFFFFFF;	/* Invalidate window if data is not reliable */
 1232              		.loc 1 815 4 view .LVU408
 815:source\fatfs/ff.c **** 				sector = 0xFFFFFFFF;	/* Invalidate window if data is not reliable */
 1233              		.loc 1 815 8 is_stmt 0 view .LVU409
 1234 0014 2246     		mov	r2, r4
 1235 0016 95F80102 		ldrb	r0, [r5, #513]	@ zero_extendqisi2
 1236              	.LVL126:
 815:source\fatfs/ff.c **** 				sector = 0xFFFFFFFF;	/* Invalidate window if data is not reliable */
 1237              		.loc 1 815 8 view .LVU410
 1238 001a 0123     		movs	r3, #1
 1239 001c 2946     		mov	r1, r5
 1240 001e FFF7FEFF 		bl	disk_read
 1241              	.LVL127:
 817:source\fatfs/ff.c **** 			}
 1242              		.loc 1 817 9 view .LVU411
 1243 0022 0028     		cmp	r0, #0
 1244 0024 1CBF     		itt	ne
 1245 0026 4FF0FF34 		movne	r4, #-1
 1246              	.LVL128:
 817:source\fatfs/ff.c **** 			}
 1247              		.loc 1 817 9 view .LVU412
 1248 002a 0120     		movne	r0, #1
 1249              	.LVL129:
 819:source\fatfs/ff.c **** 		}
 1250              		.loc 1 819 4 is_stmt 1 view .LVU413
 819:source\fatfs/ff.c **** 		}
 1251              		.loc 1 819 16 is_stmt 0 view .LVU414
 1252 002c C5F82C42 		str	r4, [r5, #556]
 822:source\fatfs/ff.c **** }
 1253              		.loc 1 822 2 is_stmt 1 view .LVU415
 1254              	.LVL130:
 1255              	.L147:
 822:source\fatfs/ff.c **** }
 1256              		.loc 1 822 2 is_stmt 0 view .LVU416
 1257              	.LBE7:
 1258              	.LBE6:
 822:source\fatfs/ff.c **** }
 1259              		.loc 1 822 2 is_stmt 1 view .LVU417
 823:source\fatfs/ff.c **** 
 1260              		.loc 1 823 1 is_stmt 0 view .LVU418
 1261 0030 38BD     		pop	{r3, r4, r5, pc}
 1262              	.LVL131:
 1263              	.L149:
 807:source\fatfs/ff.c **** 
 1264              		.loc 1 807 10 view .LVU419
 1265 0032 0020     		movs	r0, #0
 1266              	.LVL132:
 807:source\fatfs/ff.c **** 
 1267              		.loc 1 807 10 view .LVU420
 1268 0034 FCE7     		b	.L147
 1269              		.cfi_endproc
 1270              	.LFE140:
 1272              		.section	.text.check_fs,"ax",%progbits
 1273              		.align	1
 1274              		.syntax unified
 1275              		.thumb
 1276              		.thumb_func
 1278              	check_fs:
 1279              	.LVL133:
 1280              	.LFB166:
2252:source\fatfs/ff.c **** 	fs->wflag = 0; fs->winsect = 0xFFFFFFFF;	/* Invaidate window */
 1281              		.loc 1 2252 1 is_stmt 1 view -0
 1282              		.cfi_startproc
 1283              		@ args = 0, pretend = 0, frame = 0
 1284              		@ frame_needed = 0, uses_anonymous_args = 0
2253:source\fatfs/ff.c **** 	if (move_window(fs, sect) != FR_OK)			/* Load boot record */
 1285              		.loc 1 2253 12 is_stmt 0 view .LVU422
 1286 0000 0023     		movs	r3, #0
2252:source\fatfs/ff.c **** 	fs->wflag = 0; fs->winsect = 0xFFFFFFFF;	/* Invaidate window */
 1287              		.loc 1 2252 1 view .LVU423
 1288 0002 10B5     		push	{r4, lr}
 1289              		.cfi_def_cfa_offset 8
 1290              		.cfi_offset 4, -8
 1291              		.cfi_offset 14, -4
2253:source\fatfs/ff.c **** 	if (move_window(fs, sect) != FR_OK)			/* Load boot record */
 1292              		.loc 1 2253 12 view .LVU424
 1293 0004 80F80432 		strb	r3, [r0, #516]
2253:source\fatfs/ff.c **** 	if (move_window(fs, sect) != FR_OK)			/* Load boot record */
 1294              		.loc 1 2253 29 view .LVU425
 1295 0008 4FF0FF33 		mov	r3, #-1
 1296 000c C0F82C32 		str	r3, [r0, #556]
2252:source\fatfs/ff.c **** 	fs->wflag = 0; fs->winsect = 0xFFFFFFFF;	/* Invaidate window */
 1297              		.loc 1 2252 1 view .LVU426
 1298 0010 0446     		mov	r4, r0
2253:source\fatfs/ff.c **** 	if (move_window(fs, sect) != FR_OK)			/* Load boot record */
 1299              		.loc 1 2253 2 is_stmt 1 view .LVU427
2253:source\fatfs/ff.c **** 	if (move_window(fs, sect) != FR_OK)			/* Load boot record */
 1300              		.loc 1 2253 17 view .LVU428
2254:source\fatfs/ff.c **** 		return 3;
 1301              		.loc 1 2254 2 view .LVU429
2254:source\fatfs/ff.c **** 		return 3;
 1302              		.loc 1 2254 6 is_stmt 0 view .LVU430
 1303 0012 FFF7FEFF 		bl	move_window
 1304              	.LVL134:
2254:source\fatfs/ff.c **** 		return 3;
 1305              		.loc 1 2254 5 view .LVU431
 1306 0016 A0B9     		cbnz	r0, .L155
2257:source\fatfs/ff.c **** 		return 2;
 1307              		.loc 1 2257 2 is_stmt 1 view .LVU432
2257:source\fatfs/ff.c **** 		return 2;
 1308              		.loc 1 2257 5 is_stmt 0 view .LVU433
 1309 0018 B4F8FE21 		ldrh	r2, [r4, #510]
 1310 001c 4AF65523 		movw	r3, #43605
 1311 0020 9A42     		cmp	r2, r3
 1312 0022 10D1     		bne	.L156
 1313              	.LVL135:
 1314              	.LBB10:
 1315              	.LBI10:
2248:source\fatfs/ff.c **** 	FATFS* fs,	/* File system object */
 1316              		.loc 1 2248 6 is_stmt 1 view .LVU434
 1317              	.LBB11:
2260:source\fatfs/ff.c **** 		return 0;
 1318              		.loc 1 2260 2 view .LVU435
2260:source\fatfs/ff.c **** 		return 0;
 1319              		.loc 1 2260 7 is_stmt 0 view .LVU436
 1320 0024 D4F83630 		ldr	r3, [r4, #54]	@ unaligned
2260:source\fatfs/ff.c **** 		return 0;
 1321              		.loc 1 2260 5 view .LVU437
 1322 0028 084A     		ldr	r2, .L157
2260:source\fatfs/ff.c **** 		return 0;
 1323              		.loc 1 2260 44 view .LVU438
 1324 002a 23F07F43 		bic	r3, r3, #-16777216
2260:source\fatfs/ff.c **** 		return 0;
 1325              		.loc 1 2260 5 view .LVU439
 1326 002e 9342     		cmp	r3, r2
 1327 0030 06D0     		beq	.L154
2262:source\fatfs/ff.c **** 		return 0;
 1328              		.loc 1 2262 2 is_stmt 1 view .LVU440
2262:source\fatfs/ff.c **** 		return 0;
 1329              		.loc 1 2262 7 is_stmt 0 view .LVU441
 1330 0032 D4F85200 		ldr	r0, [r4, #82]	@ unaligned
2262:source\fatfs/ff.c **** 		return 0;
 1331              		.loc 1 2262 46 view .LVU442
 1332 0036 20F07F40 		bic	r0, r0, #-16777216
 1333              	.LBE11:
 1334              	.LBE10:
2255:source\fatfs/ff.c **** 
 1335              		.loc 1 2255 10 view .LVU443
 1336 003a 801A     		subs	r0, r0, r2
 1337 003c 18BF     		it	ne
 1338 003e 0120     		movne	r0, #1
 1339              	.LVL136:
 1340              	.L154:
2266:source\fatfs/ff.c **** 
 1341              		.loc 1 2266 1 view .LVU444
 1342 0040 10BD     		pop	{r4, pc}
 1343              	.LVL137:
 1344              	.L155:
2255:source\fatfs/ff.c **** 
 1345              		.loc 1 2255 10 view .LVU445
 1346 0042 0320     		movs	r0, #3
 1347 0044 FCE7     		b	.L154
 1348              	.L156:
2258:source\fatfs/ff.c **** 
 1349              		.loc 1 2258 10 view .LVU446
 1350 0046 0220     		movs	r0, #2
 1351 0048 FAE7     		b	.L154
 1352              	.L158:
 1353 004a 00BF     		.align	2
 1354              	.L157:
 1355 004c 46415400 		.word	5521734
 1356              		.cfi_endproc
 1357              	.LFE166:
 1359              		.section	.text.find_volume,"ax",%progbits
 1360              		.align	1
 1361              		.syntax unified
 1362              		.thumb
 1363              		.thumb_func
 1365              	find_volume:
 1366              	.LVL138:
 1367              	.LFB167:
2281:source\fatfs/ff.c **** 	BYTE fmt, *pt;
 1368              		.loc 1 2281 1 is_stmt 1 view -0
 1369              		.cfi_startproc
 1370              		@ args = 0, pretend = 0, frame = 16
 1371              		@ frame_needed = 0, uses_anonymous_args = 0
2282:source\fatfs/ff.c **** 	int vol;
 1372              		.loc 1 2282 2 view .LVU448
2283:source\fatfs/ff.c **** 	DSTATUS stat;
 1373              		.loc 1 2283 2 view .LVU449
2284:source\fatfs/ff.c **** 	DWORD bsect, fasize, tsect, sysect, nclst, szbfat, br[4];
 1374              		.loc 1 2284 2 view .LVU450
2285:source\fatfs/ff.c **** 	WORD nrsv;
 1375              		.loc 1 2285 2 view .LVU451
2286:source\fatfs/ff.c **** 	FATFS *fs;
 1376              		.loc 1 2286 2 view .LVU452
2287:source\fatfs/ff.c **** 	UINT i;
 1377              		.loc 1 2287 2 view .LVU453
2288:source\fatfs/ff.c **** 
 1378              		.loc 1 2288 2 view .LVU454
2292:source\fatfs/ff.c **** 	vol = get_ldnumber(path);
 1379              		.loc 1 2292 2 view .LVU455
2281:source\fatfs/ff.c **** 	BYTE fmt, *pt;
 1380              		.loc 1 2281 1 is_stmt 0 view .LVU456
 1381 0000 2DE9FF41 		push	{r0, r1, r2, r3, r4, r5, r6, r7, r8, lr}
 1382              		.cfi_def_cfa_offset 40
 1383              		.cfi_offset 4, -24
 1384              		.cfi_offset 5, -20
 1385              		.cfi_offset 6, -16
 1386              		.cfi_offset 7, -12
 1387              		.cfi_offset 8, -8
 1388              		.cfi_offset 14, -4
2292:source\fatfs/ff.c **** 	vol = get_ldnumber(path);
 1389              		.loc 1 2292 7 view .LVU457
 1390 0004 0023     		movs	r3, #0
 1391 0006 0360     		str	r3, [r0]
2293:source\fatfs/ff.c **** 	if (vol < 0) return FR_INVALID_DRIVE;
 1392              		.loc 1 2293 2 is_stmt 1 view .LVU458
2281:source\fatfs/ff.c **** 	BYTE fmt, *pt;
 1393              		.loc 1 2281 1 is_stmt 0 view .LVU459
 1394 0008 0746     		mov	r7, r0
2293:source\fatfs/ff.c **** 	if (vol < 0) return FR_INVALID_DRIVE;
 1395              		.loc 1 2293 8 view .LVU460
 1396 000a 0846     		mov	r0, r1
 1397              	.LVL139:
2281:source\fatfs/ff.c **** 	BYTE fmt, *pt;
 1398              		.loc 1 2281 1 view .LVU461
 1399 000c 1546     		mov	r5, r2
2293:source\fatfs/ff.c **** 	if (vol < 0) return FR_INVALID_DRIVE;
 1400              		.loc 1 2293 8 view .LVU462
 1401 000e FFF7FEFF 		bl	get_ldnumber
 1402              	.LVL140:
2294:source\fatfs/ff.c **** 
 1403              		.loc 1 2294 2 is_stmt 1 view .LVU463
2294:source\fatfs/ff.c **** 
 1404              		.loc 1 2294 5 is_stmt 0 view .LVU464
 1405 0012 061E     		subs	r6, r0, #0
 1406 0014 C0F20281 		blt	.L181
2297:source\fatfs/ff.c **** 	if (!fs) return FR_NOT_ENABLED;		/* Is the file system object available? */
 1407              		.loc 1 2297 2 is_stmt 1 view .LVU465
2297:source\fatfs/ff.c **** 	if (!fs) return FR_NOT_ENABLED;		/* Is the file system object available? */
 1408              		.loc 1 2297 5 is_stmt 0 view .LVU466
 1409 0018 844B     		ldr	r3, .L221
 1410 001a 53F82640 		ldr	r4, [r3, r6, lsl #2]
 1411              	.LVL141:
2298:source\fatfs/ff.c **** 
 1412              		.loc 1 2298 2 is_stmt 1 view .LVU467
2298:source\fatfs/ff.c **** 
 1413              		.loc 1 2298 5 is_stmt 0 view .LVU468
 1414 001e 002C     		cmp	r4, #0
 1415 0020 00F0FE80 		beq	.L182
2300:source\fatfs/ff.c **** 	*rfs = fs;							/* Return pointer to the file system object */
 1416              		.loc 1 2300 14 is_stmt 1 view .LVU469
2301:source\fatfs/ff.c **** 
 1417              		.loc 1 2301 2 view .LVU470
2301:source\fatfs/ff.c **** 
 1418              		.loc 1 2301 7 is_stmt 0 view .LVU471
 1419 0024 3C60     		str	r4, [r7]
2303:source\fatfs/ff.c **** 		stat = disk_status(fs->drv);
 1420              		.loc 1 2303 2 is_stmt 1 view .LVU472
2303:source\fatfs/ff.c **** 		stat = disk_status(fs->drv);
 1421              		.loc 1 2303 5 is_stmt 0 view .LVU473
 1422 0026 94F80032 		ldrb	r3, [r4, #512]	@ zero_extendqisi2
 1423 002a 73B1     		cbz	r3, .L161
2304:source\fatfs/ff.c **** 		if (!(stat & STA_NOINIT)) {		/* and the physical drive is kept initialized */
 1424              		.loc 1 2304 3 is_stmt 1 view .LVU474
2304:source\fatfs/ff.c **** 		if (!(stat & STA_NOINIT)) {		/* and the physical drive is kept initialized */
 1425              		.loc 1 2304 10 is_stmt 0 view .LVU475
 1426 002c 94F80102 		ldrb	r0, [r4, #513]	@ zero_extendqisi2
 1427              	.LVL142:
2304:source\fatfs/ff.c **** 		if (!(stat & STA_NOINIT)) {		/* and the physical drive is kept initialized */
 1428              		.loc 1 2304 10 view .LVU476
 1429 0030 FFF7FEFF 		bl	disk_status
 1430              	.LVL143:
2305:source\fatfs/ff.c **** 			if (!_FS_READONLY && wmode && (stat & STA_PROTECT))	/* Check write protection if needed */
 1431              		.loc 1 2305 3 is_stmt 1 view .LVU477
2305:source\fatfs/ff.c **** 			if (!_FS_READONLY && wmode && (stat & STA_PROTECT))	/* Check write protection if needed */
 1432              		.loc 1 2305 6 is_stmt 0 view .LVU478
 1433 0034 C107     		lsls	r1, r0, #31
 1434 0036 08D4     		bmi	.L161
2306:source\fatfs/ff.c **** 				return FR_WRITE_PROTECTED;
 1435              		.loc 1 2306 4 is_stmt 1 view .LVU479
2306:source\fatfs/ff.c **** 				return FR_WRITE_PROTECTED;
 1436              		.loc 1 2306 7 is_stmt 0 view .LVU480
 1437 0038 1DB1     		cbz	r5, .L199
2306:source\fatfs/ff.c **** 				return FR_WRITE_PROTECTED;
 1438              		.loc 1 2306 31 discriminator 1 view .LVU481
 1439 003a 10F00405 		ands	r5, r0, #4
 1440 003e 00D0     		beq	.L199
 1441              	.L163:
2307:source\fatfs/ff.c **** 			return FR_OK;				/* The file system object is valid */
 1442              		.loc 1 2307 12 view .LVU482
 1443 0040 0A25     		movs	r5, #10
 1444              	.LVL144:
 1445              	.L199:
2435:source\fatfs/ff.c **** 
 1446              		.loc 1 2435 1 view .LVU483
 1447 0042 2846     		mov	r0, r5
 1448 0044 04B0     		add	sp, sp, #16
 1449              		.cfi_remember_state
 1450              		.cfi_def_cfa_offset 24
 1451              		@ sp needed
 1452 0046 BDE8F081 		pop	{r4, r5, r6, r7, r8, pc}
 1453              	.LVL145:
 1454              	.L161:
 1455              		.cfi_restore_state
2315:source\fatfs/ff.c **** 	fs->drv = LD2PD(vol);				/* Bind the logical drive and a physical drive */
 1456              		.loc 1 2315 2 is_stmt 1 view .LVU484
2315:source\fatfs/ff.c **** 	fs->drv = LD2PD(vol);				/* Bind the logical drive and a physical drive */
 1457              		.loc 1 2315 14 is_stmt 0 view .LVU485
 1458 004a 0023     		movs	r3, #0
2316:source\fatfs/ff.c **** 	stat = disk_initialize(fs->drv);	/* Initialize the physical drive */
 1459              		.loc 1 2316 12 view .LVU486
 1460 004c F0B2     		uxtb	r0, r6
2315:source\fatfs/ff.c **** 	fs->drv = LD2PD(vol);				/* Bind the logical drive and a physical drive */
 1461              		.loc 1 2315 14 view .LVU487
 1462 004e 84F80032 		strb	r3, [r4, #512]
2316:source\fatfs/ff.c **** 	stat = disk_initialize(fs->drv);	/* Initialize the physical drive */
 1463              		.loc 1 2316 2 is_stmt 1 view .LVU488
2316:source\fatfs/ff.c **** 	stat = disk_initialize(fs->drv);	/* Initialize the physical drive */
 1464              		.loc 1 2316 10 is_stmt 0 view .LVU489
 1465 0052 84F80102 		strb	r0, [r4, #513]
2317:source\fatfs/ff.c **** 	if (stat & STA_NOINIT)				/* Check if the initialization succeeded */
 1466              		.loc 1 2317 2 is_stmt 1 view .LVU490
2317:source\fatfs/ff.c **** 	if (stat & STA_NOINIT)				/* Check if the initialization succeeded */
 1467              		.loc 1 2317 9 is_stmt 0 view .LVU491
 1468 0056 FFF7FEFF 		bl	disk_initialize
 1469              	.LVL146:
2318:source\fatfs/ff.c **** 		return FR_NOT_READY;			/* Failed to initialize due to no medium or hard error */
 1470              		.loc 1 2318 2 is_stmt 1 view .LVU492
2318:source\fatfs/ff.c **** 		return FR_NOT_READY;			/* Failed to initialize due to no medium or hard error */
 1471              		.loc 1 2318 5 is_stmt 0 view .LVU493
 1472 005a C207     		lsls	r2, r0, #31
 1473 005c 00F1E280 		bmi	.L183
2320:source\fatfs/ff.c **** 		return FR_WRITE_PROTECTED;
 1474              		.loc 1 2320 2 is_stmt 1 view .LVU494
2320:source\fatfs/ff.c **** 		return FR_WRITE_PROTECTED;
 1475              		.loc 1 2320 5 is_stmt 0 view .LVU495
 1476 0060 0DB1     		cbz	r5, .L162
2320:source\fatfs/ff.c **** 		return FR_WRITE_PROTECTED;
 1477              		.loc 1 2320 29 discriminator 1 view .LVU496
 1478 0062 4307     		lsls	r3, r0, #29
 1479 0064 ECD4     		bmi	.L163
 1480              	.L162:
2327:source\fatfs/ff.c **** 	fmt = check_fs(fs, bsect);					/* Load sector 0 and check if it is an FAT boot sector as SFD */
 1481              		.loc 1 2327 2 is_stmt 1 view .LVU497
 1482              	.LVL147:
2328:source\fatfs/ff.c **** 	if (fmt == 1 || (!fmt && (LD2PT(vol)))) {	/* Not an FAT boot sector or forced partition number */
 1483              		.loc 1 2328 2 view .LVU498
2328:source\fatfs/ff.c **** 	if (fmt == 1 || (!fmt && (LD2PT(vol)))) {	/* Not an FAT boot sector or forced partition number */
 1484              		.loc 1 2328 8 is_stmt 0 view .LVU499
 1485 0066 0021     		movs	r1, #0
 1486 0068 2046     		mov	r0, r4
 1487              	.LVL148:
2328:source\fatfs/ff.c **** 	if (fmt == 1 || (!fmt && (LD2PT(vol)))) {	/* Not an FAT boot sector or forced partition number */
 1488              		.loc 1 2328 8 view .LVU500
 1489 006a FFF7FEFF 		bl	check_fs
 1490              	.LVL149:
2329:source\fatfs/ff.c **** 		for (i = 0; i < 4; i++) {			/* Get partition offset */
 1491              		.loc 1 2329 5 view .LVU501
 1492 006e 0128     		cmp	r0, #1
2328:source\fatfs/ff.c **** 	if (fmt == 1 || (!fmt && (LD2PT(vol)))) {	/* Not an FAT boot sector or forced partition number */
 1493              		.loc 1 2328 8 view .LVU502
 1494 0070 0546     		mov	r5, r0
 1495              	.LVL150:
2329:source\fatfs/ff.c **** 		for (i = 0; i < 4; i++) {			/* Get partition offset */
 1496              		.loc 1 2329 2 is_stmt 1 view .LVU503
2329:source\fatfs/ff.c **** 		for (i = 0; i < 4; i++) {			/* Get partition offset */
 1497              		.loc 1 2329 5 is_stmt 0 view .LVU504
 1498 0072 40F0B980 		bne	.L164
 1499 0076 E846     		mov	r8, sp
 1500 0078 04F5DF73 		add	r3, r4, #446
 1501 007c 04F5FF70 		add	r0, r4, #510
 1502              	.LVL151:
2329:source\fatfs/ff.c **** 		for (i = 0; i < 4; i++) {			/* Get partition offset */
 1503              		.loc 1 2329 5 view .LVU505
 1504 0080 4146     		mov	r1, r8
 1505              	.L166:
2331:source\fatfs/ff.c **** 			br[i] = pt[4] ? LD_DWORD(&pt[8]) : 0;
 1506              		.loc 1 2331 4 is_stmt 1 view .LVU506
 1507              	.LVL152:
2332:source\fatfs/ff.c **** 		}
 1508              		.loc 1 2332 4 view .LVU507
2332:source\fatfs/ff.c **** 		}
 1509              		.loc 1 2332 37 is_stmt 0 view .LVU508
 1510 0082 1A79     		ldrb	r2, [r3, #4]	@ zero_extendqisi2
 1511 0084 02B1     		cbz	r2, .L165
2332:source\fatfs/ff.c **** 		}
 1512              		.loc 1 2332 37 discriminator 1 view .LVU509
 1513 0086 9A68     		ldr	r2, [r3, #8]	@ unaligned
 1514              	.L165:
2332:source\fatfs/ff.c **** 		}
 1515              		.loc 1 2332 10 discriminator 4 view .LVU510
 1516 0088 41F8042B 		str	r2, [r1], #4
2330:source\fatfs/ff.c **** 			pt = fs->win.d8 + MBR_Table + i * SZ_PTE;
 1517              		.loc 1 2330 22 is_stmt 1 discriminator 4 view .LVU511
2330:source\fatfs/ff.c **** 			pt = fs->win.d8 + MBR_Table + i * SZ_PTE;
 1518              		.loc 1 2330 15 discriminator 4 view .LVU512
2330:source\fatfs/ff.c **** 			pt = fs->win.d8 + MBR_Table + i * SZ_PTE;
 1519              		.loc 1 2330 3 is_stmt 0 discriminator 4 view .LVU513
 1520 008c 1033     		adds	r3, r3, #16
 1521              	.LVL153:
2330:source\fatfs/ff.c **** 			pt = fs->win.d8 + MBR_Table + i * SZ_PTE;
 1522              		.loc 1 2330 3 discriminator 4 view .LVU514
 1523 008e 8342     		cmp	r3, r0
 1524 0090 F7D1     		bne	.L166
 1525 0092 0027     		movs	r7, #0
 1526              	.LVL154:
 1527              	.L169:
2336:source\fatfs/ff.c **** 			bsect = br[i];
 1528              		.loc 1 2336 3 is_stmt 1 view .LVU515
2337:source\fatfs/ff.c **** 			fmt = bsect ? check_fs(fs, bsect) : 2;	/* Check the partition */
 1529              		.loc 1 2337 4 view .LVU516
2337:source\fatfs/ff.c **** 			fmt = bsect ? check_fs(fs, bsect) : 2;	/* Check the partition */
 1530              		.loc 1 2337 10 is_stmt 0 view .LVU517
 1531 0094 58F8046B 		ldr	r6, [r8], #4
 1532              	.LVL155:
2338:source\fatfs/ff.c **** 		} while (!LD2PT(vol) && fmt && ++i < 4);
 1533              		.loc 1 2338 4 is_stmt 1 view .LVU518
2338:source\fatfs/ff.c **** 		} while (!LD2PT(vol) && fmt && ++i < 4);
 1534              		.loc 1 2338 8 is_stmt 0 view .LVU519
 1535 0098 002E     		cmp	r6, #0
 1536 009a 00F09D80 		beq	.L185
2338:source\fatfs/ff.c **** 		} while (!LD2PT(vol) && fmt && ++i < 4);
 1537              		.loc 1 2338 18 discriminator 1 view .LVU520
 1538 009e 3146     		mov	r1, r6
 1539 00a0 2046     		mov	r0, r4
 1540 00a2 FFF7FEFF 		bl	check_fs
 1541              	.LVL156:
2339:source\fatfs/ff.c **** 	}
 1542              		.loc 1 2339 11 is_stmt 1 discriminator 1 view .LVU521
2339:source\fatfs/ff.c **** 	}
 1543              		.loc 1 2339 3 is_stmt 0 discriminator 1 view .LVU522
 1544 00a6 0028     		cmp	r0, #0
 1545 00a8 40F09780 		bne	.L167
 1546              	.LVL157:
 1547              	.L168:
2346:source\fatfs/ff.c **** 		return FR_NO_FILESYSTEM;
 1548              		.loc 1 2346 2 is_stmt 1 view .LVU523
2346:source\fatfs/ff.c **** 		return FR_NO_FILESYSTEM;
 1549              		.loc 1 2346 5 is_stmt 0 view .LVU524
 1550 00ac B4F80B30 		ldrh	r3, [r4, #11]	@ unaligned
 1551 00b0 B3F5007F 		cmp	r3, #512
 1552 00b4 40F09B80 		bne	.L171
2349:source\fatfs/ff.c **** 	if (!fasize) fasize = LD_DWORD(fs->win.d8 + BPB_FATSz32);
 1553              		.loc 1 2349 2 is_stmt 1 view .LVU525
2349:source\fatfs/ff.c **** 	if (!fasize) fasize = LD_DWORD(fs->win.d8 + BPB_FATSz32);
 1554              		.loc 1 2349 9 is_stmt 0 view .LVU526
 1555 00b8 E08A     		ldrh	r0, [r4, #22]
 1556              	.LVL158:
2350:source\fatfs/ff.c **** 	fs->fsize = fasize;
 1557              		.loc 1 2350 2 is_stmt 1 view .LVU527
2350:source\fatfs/ff.c **** 	fs->fsize = fasize;
 1558              		.loc 1 2350 5 is_stmt 0 view .LVU528
 1559 00ba 00B9     		cbnz	r0, .L172
2350:source\fatfs/ff.c **** 	fs->fsize = fasize;
 1560              		.loc 1 2350 15 is_stmt 1 discriminator 1 view .LVU529
2350:source\fatfs/ff.c **** 	fs->fsize = fasize;
 1561              		.loc 1 2350 22 is_stmt 0 discriminator 1 view .LVU530
 1562 00bc 606A     		ldr	r0, [r4, #36]
 1563              	.LVL159:
 1564              	.L172:
2351:source\fatfs/ff.c **** 
 1565              		.loc 1 2351 2 is_stmt 1 view .LVU531
2353:source\fatfs/ff.c **** 	if (fs->n_fats != 1 && fs->n_fats != 2)				/* (Must be 1 or 2) */
 1566              		.loc 1 2353 25 is_stmt 0 view .LVU532
 1567 00be 277C     		ldrb	r7, [r4, #16]	@ zero_extendqisi2
2351:source\fatfs/ff.c **** 
 1568              		.loc 1 2351 12 view .LVU533
 1569 00c0 C4F81802 		str	r0, [r4, #536]
2353:source\fatfs/ff.c **** 	if (fs->n_fats != 1 && fs->n_fats != 2)				/* (Must be 1 or 2) */
 1570              		.loc 1 2353 2 is_stmt 1 view .LVU534
2354:source\fatfs/ff.c **** 		return FR_NO_FILESYSTEM;
 1571              		.loc 1 2354 5 is_stmt 0 view .LVU535
 1572 00c4 7B1E     		subs	r3, r7, #1
 1573 00c6 012B     		cmp	r3, #1
2353:source\fatfs/ff.c **** 	if (fs->n_fats != 1 && fs->n_fats != 2)				/* (Must be 1 or 2) */
 1574              		.loc 1 2353 13 view .LVU536
 1575 00c8 84F80372 		strb	r7, [r4, #515]
2354:source\fatfs/ff.c **** 		return FR_NO_FILESYSTEM;
 1576              		.loc 1 2354 2 is_stmt 1 view .LVU537
2354:source\fatfs/ff.c **** 		return FR_NO_FILESYSTEM;
 1577              		.loc 1 2354 5 is_stmt 0 view .LVU538
 1578 00cc 00F28F80 		bhi	.L171
2356:source\fatfs/ff.c **** 
 1579              		.loc 1 2356 2 is_stmt 1 view .LVU539
 1580              	.LVL160:
2358:source\fatfs/ff.c **** 	if (!fs->csize || (fs->csize & (fs->csize - 1)))	/* (Must be power of 2) */
 1581              		.loc 1 2358 2 view .LVU540
2358:source\fatfs/ff.c **** 	if (!fs->csize || (fs->csize & (fs->csize - 1)))	/* (Must be power of 2) */
 1582              		.loc 1 2358 24 is_stmt 0 view .LVU541
 1583 00d0 657B     		ldrb	r5, [r4, #13]	@ zero_extendqisi2
2358:source\fatfs/ff.c **** 	if (!fs->csize || (fs->csize & (fs->csize - 1)))	/* (Must be power of 2) */
 1584              		.loc 1 2358 12 view .LVU542
 1585 00d2 84F80252 		strb	r5, [r4, #514]
2359:source\fatfs/ff.c **** 		return FR_NO_FILESYSTEM;
 1586              		.loc 1 2359 2 is_stmt 1 view .LVU543
2359:source\fatfs/ff.c **** 		return FR_NO_FILESYSTEM;
 1587              		.loc 1 2359 5 is_stmt 0 view .LVU544
 1588 00d6 002D     		cmp	r5, #0
 1589 00d8 00F08980 		beq	.L171
2359:source\fatfs/ff.c **** 		return FR_NO_FILESYSTEM;
 1590              		.loc 1 2359 44 discriminator 1 view .LVU545
 1591 00dc 6B1E     		subs	r3, r5, #1
2359:source\fatfs/ff.c **** 		return FR_NO_FILESYSTEM;
 1592              		.loc 1 2359 17 discriminator 1 view .LVU546
 1593 00de 2B42     		tst	r3, r5
 1594 00e0 40F08580 		bne	.L171
2362:source\fatfs/ff.c **** 	if (fs->n_rootdir % (SS(fs) / SZ_DIRE))				/* (Must be sector aligned) */
 1595              		.loc 1 2362 2 is_stmt 1 view .LVU547
 1596 00e4 B4F811C0 		ldrh	ip, [r4, #17]	@ unaligned
2362:source\fatfs/ff.c **** 	if (fs->n_rootdir % (SS(fs) / SZ_DIRE))				/* (Must be sector aligned) */
 1597              		.loc 1 2362 16 is_stmt 0 view .LVU548
 1598 00e8 A4F808C2 		strh	ip, [r4, #520]	@ movhi
2363:source\fatfs/ff.c **** 		return FR_NO_FILESYSTEM;
 1599              		.loc 1 2363 2 is_stmt 1 view .LVU549
2363:source\fatfs/ff.c **** 		return FR_NO_FILESYSTEM;
 1600              		.loc 1 2363 5 is_stmt 0 view .LVU550
 1601 00ec 1CF00F0F 		tst	ip, #15
 1602 00f0 7DD1     		bne	.L171
2366:source\fatfs/ff.c **** 	if (!tsect) tsect = LD_DWORD(fs->win.d8 + BPB_TotSec32);
 1603              		.loc 1 2366 2 is_stmt 1 view .LVU551
2366:source\fatfs/ff.c **** 	if (!tsect) tsect = LD_DWORD(fs->win.d8 + BPB_TotSec32);
 1604              		.loc 1 2366 8 is_stmt 0 view .LVU552
 1605 00f2 B4F81330 		ldrh	r3, [r4, #19]	@ unaligned
 1606              	.LVL161:
2367:source\fatfs/ff.c **** 
 1607              		.loc 1 2367 2 is_stmt 1 view .LVU553
2367:source\fatfs/ff.c **** 
 1608              		.loc 1 2367 5 is_stmt 0 view .LVU554
 1609 00f6 03B9     		cbnz	r3, .L173
2367:source\fatfs/ff.c **** 
 1610              		.loc 1 2367 14 is_stmt 1 discriminator 1 view .LVU555
2367:source\fatfs/ff.c **** 
 1611              		.loc 1 2367 20 is_stmt 0 discriminator 1 view .LVU556
 1612 00f8 236A     		ldr	r3, [r4, #32]
 1613              	.LVL162:
 1614              	.L173:
2369:source\fatfs/ff.c **** 	if (!nrsv) return FR_NO_FILESYSTEM;					/* (Must not be 0) */
 1615              		.loc 1 2369 2 is_stmt 1 view .LVU557
 1616 00fa E289     		ldrh	r2, [r4, #14]
 1617              	.LVL163:
2370:source\fatfs/ff.c **** 
 1618              		.loc 1 2370 2 view .LVU558
2370:source\fatfs/ff.c **** 
 1619              		.loc 1 2370 5 is_stmt 0 view .LVU559
 1620 00fc 002A     		cmp	r2, #0
 1621 00fe 76D0     		beq	.L171
2356:source\fatfs/ff.c **** 
 1622              		.loc 1 2356 9 view .LVU560
 1623 0100 4743     		muls	r7, r0, r7
 1624              	.LVL164:
2373:source\fatfs/ff.c **** 	if (tsect < sysect) return FR_NO_FILESYSTEM;		/* (Invalid volume size) */
 1625              		.loc 1 2373 2 is_stmt 1 view .LVU561
2373:source\fatfs/ff.c **** 	if (tsect < sysect) return FR_NO_FILESYSTEM;		/* (Invalid volume size) */
 1626              		.loc 1 2373 9 is_stmt 0 view .LVU562
 1627 0102 02EB1C11 		add	r1, r2, ip, lsr #4
 1628 0106 3944     		add	r1, r1, r7
 1629              	.LVL165:
2374:source\fatfs/ff.c **** 	nclst = (tsect - sysect) / fs->csize;				/* Number of clusters */
 1630              		.loc 1 2374 2 is_stmt 1 view .LVU563
2374:source\fatfs/ff.c **** 	nclst = (tsect - sysect) / fs->csize;				/* Number of clusters */
 1631              		.loc 1 2374 5 is_stmt 0 view .LVU564
 1632 0108 8B42     		cmp	r3, r1
 1633 010a 70D3     		bcc	.L171
2375:source\fatfs/ff.c **** 	if (!nclst) return FR_NO_FILESYSTEM;				/* (Invalid volume size) */
 1634              		.loc 1 2375 2 is_stmt 1 view .LVU565
2375:source\fatfs/ff.c **** 	if (!nclst) return FR_NO_FILESYSTEM;				/* (Invalid volume size) */
 1635              		.loc 1 2375 17 is_stmt 0 view .LVU566
 1636 010c 5B1A     		subs	r3, r3, r1
 1637              	.LVL166:
2376:source\fatfs/ff.c **** 	fmt = FS_FAT12;
 1638              		.loc 1 2376 5 view .LVU567
 1639 010e AB42     		cmp	r3, r5
2375:source\fatfs/ff.c **** 	if (!nclst) return FR_NO_FILESYSTEM;				/* (Invalid volume size) */
 1640              		.loc 1 2375 8 view .LVU568
 1641 0110 B3FBF5FE 		udiv	lr, r3, r5
 1642              	.LVL167:
2376:source\fatfs/ff.c **** 	fmt = FS_FAT12;
 1643              		.loc 1 2376 2 is_stmt 1 view .LVU569
2376:source\fatfs/ff.c **** 	fmt = FS_FAT12;
 1644              		.loc 1 2376 5 is_stmt 0 view .LVU570
 1645 0114 6BD3     		bcc	.L171
2377:source\fatfs/ff.c **** 	if (nclst >= MIN_FAT16) fmt = FS_FAT16;
 1646              		.loc 1 2377 2 is_stmt 1 view .LVU571
 1647              	.LVL168:
2378:source\fatfs/ff.c **** 	if (nclst >= MIN_FAT32) fmt = FS_FAT32;
 1648              		.loc 1 2378 2 view .LVU572
2378:source\fatfs/ff.c **** 	if (nclst >= MIN_FAT32) fmt = FS_FAT32;
 1649              		.loc 1 2378 5 is_stmt 0 view .LVU573
 1650 0116 40F6F573 		movw	r3, #4085
 1651 011a 9E45     		cmp	lr, r3
 1652 011c 6BD9     		bls	.L188
2378:source\fatfs/ff.c **** 	if (nclst >= MIN_FAT32) fmt = FS_FAT32;
 1653              		.loc 1 2378 26 is_stmt 1 view .LVU574
 1654              	.LVL169:
2379:source\fatfs/ff.c **** 
 1655              		.loc 1 2379 2 view .LVU575
2379:source\fatfs/ff.c **** 
 1656              		.loc 1 2379 30 is_stmt 0 view .LVU576
 1657 011e 4FF6F575 		movw	r5, #65525
 1658 0122 AE45     		cmp	lr, r5
 1659 0124 94BF     		ite	ls
 1660 0126 0225     		movls	r5, #2
 1661 0128 0325     		movhi	r5, #3
 1662              	.LVL170:
 1663              	.L174:
2382:source\fatfs/ff.c **** 	fs->volbase = bsect;								/* Volume start sector */
 1664              		.loc 1 2382 2 is_stmt 1 view .LVU577
2382:source\fatfs/ff.c **** 	fs->volbase = bsect;								/* Volume start sector */
 1665              		.loc 1 2382 23 is_stmt 0 view .LVU578
 1666 012a 0EF10203 		add	r3, lr, #2
2384:source\fatfs/ff.c **** 	fs->database = bsect + sysect;						/* Data start sector */
 1667              		.loc 1 2384 22 view .LVU579
 1668 012e 3244     		add	r2, r2, r6
 1669              	.LVL171:
2385:source\fatfs/ff.c **** 	if (fmt == FS_FAT32) {
 1670              		.loc 1 2385 23 view .LVU580
 1671 0130 3144     		add	r1, r1, r6
 1672              	.LVL172:
2386:source\fatfs/ff.c **** 		if (fs->n_rootdir) return FR_NO_FILESYSTEM;		/* (BPB_RootEntCnt must be 0) */
 1673              		.loc 1 2386 5 view .LVU581
 1674 0132 032D     		cmp	r5, #3
2382:source\fatfs/ff.c **** 	fs->volbase = bsect;								/* Volume start sector */
 1675              		.loc 1 2382 15 view .LVU582
 1676 0134 C4F81432 		str	r3, [r4, #532]
2383:source\fatfs/ff.c **** 	fs->fatbase = bsect + nrsv; 						/* FAT start sector */
 1677              		.loc 1 2383 2 is_stmt 1 view .LVU583
2383:source\fatfs/ff.c **** 	fs->fatbase = bsect + nrsv; 						/* FAT start sector */
 1678              		.loc 1 2383 14 is_stmt 0 view .LVU584
 1679 0138 C4F81C62 		str	r6, [r4, #540]
2384:source\fatfs/ff.c **** 	fs->database = bsect + sysect;						/* Data start sector */
 1680              		.loc 1 2384 2 is_stmt 1 view .LVU585
2384:source\fatfs/ff.c **** 	fs->database = bsect + sysect;						/* Data start sector */
 1681              		.loc 1 2384 14 is_stmt 0 view .LVU586
 1682 013c C4F82022 		str	r2, [r4, #544]
2385:source\fatfs/ff.c **** 	if (fmt == FS_FAT32) {
 1683              		.loc 1 2385 2 is_stmt 1 view .LVU587
2385:source\fatfs/ff.c **** 	if (fmt == FS_FAT32) {
 1684              		.loc 1 2385 15 is_stmt 0 view .LVU588
 1685 0140 C4F82812 		str	r1, [r4, #552]
2386:source\fatfs/ff.c **** 		if (fs->n_rootdir) return FR_NO_FILESYSTEM;		/* (BPB_RootEntCnt must be 0) */
 1686              		.loc 1 2386 2 is_stmt 1 view .LVU589
2386:source\fatfs/ff.c **** 		if (fs->n_rootdir) return FR_NO_FILESYSTEM;		/* (BPB_RootEntCnt must be 0) */
 1687              		.loc 1 2386 5 is_stmt 0 view .LVU590
 1688 0144 59D1     		bne	.L175
 1689              	.LVL173:
2387:source\fatfs/ff.c **** 		fs->dirbase = LD_DWORD(fs->win.d8 + BPB_RootClus);	/* Root directory start cluster */
 1690              		.loc 1 2387 3 is_stmt 1 view .LVU591
2387:source\fatfs/ff.c **** 		fs->dirbase = LD_DWORD(fs->win.d8 + BPB_RootClus);	/* Root directory start cluster */
 1691              		.loc 1 2387 6 is_stmt 0 view .LVU592
 1692 0146 BCF1000F 		cmp	ip, #0
 1693 014a 50D1     		bne	.L171
2388:source\fatfs/ff.c **** 		szbfat = fs->n_fatent * 4;						/* (Needed FAT size) */
 1694              		.loc 1 2388 3 is_stmt 1 view .LVU593
2388:source\fatfs/ff.c **** 		szbfat = fs->n_fatent * 4;						/* (Needed FAT size) */
 1695              		.loc 1 2388 15 is_stmt 0 view .LVU594
 1696 014c E26A     		ldr	r2, [r4, #44]
 1697 014e C4F82422 		str	r2, [r4, #548]
2389:source\fatfs/ff.c **** 	} else {
 1698              		.loc 1 2389 3 is_stmt 1 view .LVU595
2389:source\fatfs/ff.c **** 	} else {
 1699              		.loc 1 2389 10 is_stmt 0 view .LVU596
 1700 0152 9B00     		lsls	r3, r3, #2
 1701              	.LVL174:
 1702              	.L176:
2396:source\fatfs/ff.c **** 		return FR_NO_FILESYSTEM;
 1703              		.loc 1 2396 2 is_stmt 1 view .LVU597
2396:source\fatfs/ff.c **** 		return FR_NO_FILESYSTEM;
 1704              		.loc 1 2396 26 is_stmt 0 view .LVU598
 1705 0154 03F2FF13 		addw	r3, r3, #511
 1706              	.LVL175:
2396:source\fatfs/ff.c **** 		return FR_NO_FILESYSTEM;
 1707              		.loc 1 2396 5 view .LVU599
 1708 0158 B0EB532F 		cmp	r0, r3, lsr #9
 1709 015c 47D3     		bcc	.L171
2401:source\fatfs/ff.c **** 
 1710              		.loc 1 2401 2 is_stmt 1 view .LVU600
2401:source\fatfs/ff.c **** 
